   1              		.syntax unified
   2              		.cpu cortex-m4
   3              		.fpu softvfp
   4              		.eabi_attribute 20, 1
   5              		.eabi_attribute 21, 1
   6              		.eabi_attribute 23, 3
   7              		.eabi_attribute 24, 1
   8              		.eabi_attribute 25, 1
   9              		.eabi_attribute 26, 1
  10              		.eabi_attribute 30, 6
  11              		.eabi_attribute 34, 1
  12              		.eabi_attribute 18, 4
  13              		.thumb
  14              		.file	"stm32f10x_sdio.c"
  15              		.text
  16              	.Ltext0:
  17              		.cfi_sections	.debug_frame
  18              		.align	2
  19              		.global	SDIO_DeInit
  20              		.thumb
  21              		.thumb_func
  23              	SDIO_DeInit:
  24              	.LFB29:
  25              		.file 1 "../stm32_lib/src/stm32f10x_sdio.c"
   1:../stm32_lib/src/stm32f10x_sdio.c **** /**
   2:../stm32_lib/src/stm32f10x_sdio.c ****   ******************************************************************************
   3:../stm32_lib/src/stm32f10x_sdio.c ****   * @file    stm32f10x_sdio.c
   4:../stm32_lib/src/stm32f10x_sdio.c ****   * @author  MCD Application Team
   5:../stm32_lib/src/stm32f10x_sdio.c ****   * @version V3.3.0
   6:../stm32_lib/src/stm32f10x_sdio.c ****   * @date    04/16/2010
   7:../stm32_lib/src/stm32f10x_sdio.c ****   * @brief   This file provides all the SDIO firmware functions.
   8:../stm32_lib/src/stm32f10x_sdio.c ****   ******************************************************************************
   9:../stm32_lib/src/stm32f10x_sdio.c ****   * @copy
  10:../stm32_lib/src/stm32f10x_sdio.c ****   *
  11:../stm32_lib/src/stm32f10x_sdio.c ****   * THE PRESENT FIRMWARE WHICH IS FOR GUIDANCE ONLY AIMS AT PROVIDING CUSTOMERS
  12:../stm32_lib/src/stm32f10x_sdio.c ****   * WITH CODING INFORMATION REGARDING THEIR PRODUCTS IN ORDER FOR THEM TO SAVE
  13:../stm32_lib/src/stm32f10x_sdio.c ****   * TIME. AS A RESULT, STMICROELECTRONICS SHALL NOT BE HELD LIABLE FOR ANY
  14:../stm32_lib/src/stm32f10x_sdio.c ****   * DIRECT, INDIRECT OR CONSEQUENTIAL DAMAGES WITH RESPECT TO ANY CLAIMS ARISING
  15:../stm32_lib/src/stm32f10x_sdio.c ****   * FROM THE CONTENT OF SUCH FIRMWARE AND/OR THE USE MADE BY CUSTOMERS OF THE
  16:../stm32_lib/src/stm32f10x_sdio.c ****   * CODING INFORMATION CONTAINED HEREIN IN CONNECTION WITH THEIR PRODUCTS.
  17:../stm32_lib/src/stm32f10x_sdio.c ****   *
  18:../stm32_lib/src/stm32f10x_sdio.c ****   * <h2><center>&copy; COPYRIGHT 2010 STMicroelectronics</center></h2>
  19:../stm32_lib/src/stm32f10x_sdio.c ****   */ 
  20:../stm32_lib/src/stm32f10x_sdio.c **** 
  21:../stm32_lib/src/stm32f10x_sdio.c **** /* Includes ------------------------------------------------------------------*/
  22:../stm32_lib/src/stm32f10x_sdio.c **** #include "stm32f10x_sdio.h"
  23:../stm32_lib/src/stm32f10x_sdio.c **** #include "stm32f10x_rcc.h"
  24:../stm32_lib/src/stm32f10x_sdio.c **** 
  25:../stm32_lib/src/stm32f10x_sdio.c **** /** @addtogroup STM32F10x_StdPeriph_Driver
  26:../stm32_lib/src/stm32f10x_sdio.c ****   * @{
  27:../stm32_lib/src/stm32f10x_sdio.c ****   */
  28:../stm32_lib/src/stm32f10x_sdio.c **** 
  29:../stm32_lib/src/stm32f10x_sdio.c **** /** @defgroup SDIO 
  30:../stm32_lib/src/stm32f10x_sdio.c ****   * @brief SDIO driver modules
  31:../stm32_lib/src/stm32f10x_sdio.c ****   * @{
  32:../stm32_lib/src/stm32f10x_sdio.c ****   */ 
  33:../stm32_lib/src/stm32f10x_sdio.c **** 
  34:../stm32_lib/src/stm32f10x_sdio.c **** /** @defgroup SDIO_Private_TypesDefinitions
  35:../stm32_lib/src/stm32f10x_sdio.c ****   * @{
  36:../stm32_lib/src/stm32f10x_sdio.c ****   */ 
  37:../stm32_lib/src/stm32f10x_sdio.c **** 
  38:../stm32_lib/src/stm32f10x_sdio.c **** /* ------------ SDIO registers bit address in the alias region ----------- */
  39:../stm32_lib/src/stm32f10x_sdio.c **** #define SDIO_OFFSET                (SDIO_BASE - PERIPH_BASE)
  40:../stm32_lib/src/stm32f10x_sdio.c **** 
  41:../stm32_lib/src/stm32f10x_sdio.c **** /* --- CLKCR Register ---*/
  42:../stm32_lib/src/stm32f10x_sdio.c **** 
  43:../stm32_lib/src/stm32f10x_sdio.c **** /* Alias word address of CLKEN bit */
  44:../stm32_lib/src/stm32f10x_sdio.c **** #define CLKCR_OFFSET              (SDIO_OFFSET + 0x04)
  45:../stm32_lib/src/stm32f10x_sdio.c **** #define CLKEN_BitNumber           0x08
  46:../stm32_lib/src/stm32f10x_sdio.c **** #define CLKCR_CLKEN_BB            (PERIPH_BB_BASE + (CLKCR_OFFSET * 32) + (CLKEN_BitNumber * 4))
  47:../stm32_lib/src/stm32f10x_sdio.c **** 
  48:../stm32_lib/src/stm32f10x_sdio.c **** /* --- CMD Register ---*/
  49:../stm32_lib/src/stm32f10x_sdio.c **** 
  50:../stm32_lib/src/stm32f10x_sdio.c **** /* Alias word address of SDIOSUSPEND bit */
  51:../stm32_lib/src/stm32f10x_sdio.c **** #define CMD_OFFSET                (SDIO_OFFSET + 0x0C)
  52:../stm32_lib/src/stm32f10x_sdio.c **** #define SDIOSUSPEND_BitNumber     0x0B
  53:../stm32_lib/src/stm32f10x_sdio.c **** #define CMD_SDIOSUSPEND_BB        (PERIPH_BB_BASE + (CMD_OFFSET * 32) + (SDIOSUSPEND_BitNumber * 4)
  54:../stm32_lib/src/stm32f10x_sdio.c **** 
  55:../stm32_lib/src/stm32f10x_sdio.c **** /* Alias word address of ENCMDCOMPL bit */
  56:../stm32_lib/src/stm32f10x_sdio.c **** #define ENCMDCOMPL_BitNumber      0x0C
  57:../stm32_lib/src/stm32f10x_sdio.c **** #define CMD_ENCMDCOMPL_BB         (PERIPH_BB_BASE + (CMD_OFFSET * 32) + (ENCMDCOMPL_BitNumber * 4))
  58:../stm32_lib/src/stm32f10x_sdio.c **** 
  59:../stm32_lib/src/stm32f10x_sdio.c **** /* Alias word address of NIEN bit */
  60:../stm32_lib/src/stm32f10x_sdio.c **** #define NIEN_BitNumber            0x0D
  61:../stm32_lib/src/stm32f10x_sdio.c **** #define CMD_NIEN_BB               (PERIPH_BB_BASE + (CMD_OFFSET * 32) + (NIEN_BitNumber * 4))
  62:../stm32_lib/src/stm32f10x_sdio.c **** 
  63:../stm32_lib/src/stm32f10x_sdio.c **** /* Alias word address of ATACMD bit */
  64:../stm32_lib/src/stm32f10x_sdio.c **** #define ATACMD_BitNumber          0x0E
  65:../stm32_lib/src/stm32f10x_sdio.c **** #define CMD_ATACMD_BB             (PERIPH_BB_BASE + (CMD_OFFSET * 32) + (ATACMD_BitNumber * 4))
  66:../stm32_lib/src/stm32f10x_sdio.c **** 
  67:../stm32_lib/src/stm32f10x_sdio.c **** /* --- DCTRL Register ---*/
  68:../stm32_lib/src/stm32f10x_sdio.c **** 
  69:../stm32_lib/src/stm32f10x_sdio.c **** /* Alias word address of DMAEN bit */
  70:../stm32_lib/src/stm32f10x_sdio.c **** #define DCTRL_OFFSET              (SDIO_OFFSET + 0x2C)
  71:../stm32_lib/src/stm32f10x_sdio.c **** #define DMAEN_BitNumber           0x03
  72:../stm32_lib/src/stm32f10x_sdio.c **** #define DCTRL_DMAEN_BB            (PERIPH_BB_BASE + (DCTRL_OFFSET * 32) + (DMAEN_BitNumber * 4))
  73:../stm32_lib/src/stm32f10x_sdio.c **** 
  74:../stm32_lib/src/stm32f10x_sdio.c **** /* Alias word address of RWSTART bit */
  75:../stm32_lib/src/stm32f10x_sdio.c **** #define RWSTART_BitNumber         0x08
  76:../stm32_lib/src/stm32f10x_sdio.c **** #define DCTRL_RWSTART_BB          (PERIPH_BB_BASE + (DCTRL_OFFSET * 32) + (RWSTART_BitNumber * 4))
  77:../stm32_lib/src/stm32f10x_sdio.c **** 
  78:../stm32_lib/src/stm32f10x_sdio.c **** /* Alias word address of RWSTOP bit */
  79:../stm32_lib/src/stm32f10x_sdio.c **** #define RWSTOP_BitNumber          0x09
  80:../stm32_lib/src/stm32f10x_sdio.c **** #define DCTRL_RWSTOP_BB           (PERIPH_BB_BASE + (DCTRL_OFFSET * 32) + (RWSTOP_BitNumber * 4))
  81:../stm32_lib/src/stm32f10x_sdio.c **** 
  82:../stm32_lib/src/stm32f10x_sdio.c **** /* Alias word address of RWMOD bit */
  83:../stm32_lib/src/stm32f10x_sdio.c **** #define RWMOD_BitNumber           0x0A
  84:../stm32_lib/src/stm32f10x_sdio.c **** #define DCTRL_RWMOD_BB            (PERIPH_BB_BASE + (DCTRL_OFFSET * 32) + (RWMOD_BitNumber * 4))
  85:../stm32_lib/src/stm32f10x_sdio.c **** 
  86:../stm32_lib/src/stm32f10x_sdio.c **** /* Alias word address of SDIOEN bit */
  87:../stm32_lib/src/stm32f10x_sdio.c **** #define SDIOEN_BitNumber          0x0B
  88:../stm32_lib/src/stm32f10x_sdio.c **** #define DCTRL_SDIOEN_BB           (PERIPH_BB_BASE + (DCTRL_OFFSET * 32) + (SDIOEN_BitNumber * 4))
  89:../stm32_lib/src/stm32f10x_sdio.c **** 
  90:../stm32_lib/src/stm32f10x_sdio.c **** /* ---------------------- SDIO registers bit mask ------------------------ */
  91:../stm32_lib/src/stm32f10x_sdio.c **** 
  92:../stm32_lib/src/stm32f10x_sdio.c **** /* --- CLKCR Register ---*/
  93:../stm32_lib/src/stm32f10x_sdio.c **** 
  94:../stm32_lib/src/stm32f10x_sdio.c **** /* CLKCR register clear mask */
  95:../stm32_lib/src/stm32f10x_sdio.c **** #define CLKCR_CLEAR_MASK         ((uint32_t)0xFFFF8100) 
  96:../stm32_lib/src/stm32f10x_sdio.c **** 
  97:../stm32_lib/src/stm32f10x_sdio.c **** /* --- PWRCTRL Register ---*/
  98:../stm32_lib/src/stm32f10x_sdio.c **** 
  99:../stm32_lib/src/stm32f10x_sdio.c **** /* SDIO PWRCTRL Mask */
 100:../stm32_lib/src/stm32f10x_sdio.c **** #define PWR_PWRCTRL_MASK         ((uint32_t)0xFFFFFFFC)
 101:../stm32_lib/src/stm32f10x_sdio.c **** 
 102:../stm32_lib/src/stm32f10x_sdio.c **** /* --- DCTRL Register ---*/
 103:../stm32_lib/src/stm32f10x_sdio.c **** 
 104:../stm32_lib/src/stm32f10x_sdio.c **** /* SDIO DCTRL Clear Mask */
 105:../stm32_lib/src/stm32f10x_sdio.c **** #define DCTRL_CLEAR_MASK         ((uint32_t)0xFFFFFF08)
 106:../stm32_lib/src/stm32f10x_sdio.c **** 
 107:../stm32_lib/src/stm32f10x_sdio.c **** /* --- CMD Register ---*/
 108:../stm32_lib/src/stm32f10x_sdio.c **** 
 109:../stm32_lib/src/stm32f10x_sdio.c **** /* CMD Register clear mask */
 110:../stm32_lib/src/stm32f10x_sdio.c **** #define CMD_CLEAR_MASK           ((uint32_t)0xFFFFF800)
 111:../stm32_lib/src/stm32f10x_sdio.c **** 
 112:../stm32_lib/src/stm32f10x_sdio.c **** /* SDIO RESP Registers Address */
 113:../stm32_lib/src/stm32f10x_sdio.c **** #define SDIO_RESP_ADDR           ((uint32_t)(SDIO_BASE + 0x14))
 114:../stm32_lib/src/stm32f10x_sdio.c **** 
 115:../stm32_lib/src/stm32f10x_sdio.c **** /**
 116:../stm32_lib/src/stm32f10x_sdio.c ****   * @}
 117:../stm32_lib/src/stm32f10x_sdio.c ****   */
 118:../stm32_lib/src/stm32f10x_sdio.c **** 
 119:../stm32_lib/src/stm32f10x_sdio.c **** /** @defgroup SDIO_Private_Defines
 120:../stm32_lib/src/stm32f10x_sdio.c ****   * @{
 121:../stm32_lib/src/stm32f10x_sdio.c ****   */
 122:../stm32_lib/src/stm32f10x_sdio.c **** 
 123:../stm32_lib/src/stm32f10x_sdio.c **** /**
 124:../stm32_lib/src/stm32f10x_sdio.c ****   * @}
 125:../stm32_lib/src/stm32f10x_sdio.c ****   */
 126:../stm32_lib/src/stm32f10x_sdio.c **** 
 127:../stm32_lib/src/stm32f10x_sdio.c **** /** @defgroup SDIO_Private_Macros
 128:../stm32_lib/src/stm32f10x_sdio.c ****   * @{
 129:../stm32_lib/src/stm32f10x_sdio.c ****   */
 130:../stm32_lib/src/stm32f10x_sdio.c **** 
 131:../stm32_lib/src/stm32f10x_sdio.c **** /**
 132:../stm32_lib/src/stm32f10x_sdio.c ****   * @}
 133:../stm32_lib/src/stm32f10x_sdio.c ****   */
 134:../stm32_lib/src/stm32f10x_sdio.c **** 
 135:../stm32_lib/src/stm32f10x_sdio.c **** /** @defgroup SDIO_Private_Variables
 136:../stm32_lib/src/stm32f10x_sdio.c ****   * @{
 137:../stm32_lib/src/stm32f10x_sdio.c ****   */
 138:../stm32_lib/src/stm32f10x_sdio.c **** 
 139:../stm32_lib/src/stm32f10x_sdio.c **** /**
 140:../stm32_lib/src/stm32f10x_sdio.c ****   * @}
 141:../stm32_lib/src/stm32f10x_sdio.c ****   */
 142:../stm32_lib/src/stm32f10x_sdio.c **** 
 143:../stm32_lib/src/stm32f10x_sdio.c **** /** @defgroup SDIO_Private_FunctionPrototypes
 144:../stm32_lib/src/stm32f10x_sdio.c ****   * @{
 145:../stm32_lib/src/stm32f10x_sdio.c ****   */
 146:../stm32_lib/src/stm32f10x_sdio.c **** 
 147:../stm32_lib/src/stm32f10x_sdio.c **** /**
 148:../stm32_lib/src/stm32f10x_sdio.c ****   * @}
 149:../stm32_lib/src/stm32f10x_sdio.c ****   */
 150:../stm32_lib/src/stm32f10x_sdio.c **** 
 151:../stm32_lib/src/stm32f10x_sdio.c **** /** @defgroup SDIO_Private_Functions
 152:../stm32_lib/src/stm32f10x_sdio.c ****   * @{
 153:../stm32_lib/src/stm32f10x_sdio.c ****   */
 154:../stm32_lib/src/stm32f10x_sdio.c **** 
 155:../stm32_lib/src/stm32f10x_sdio.c **** /**
 156:../stm32_lib/src/stm32f10x_sdio.c ****   * @brief  Deinitializes the SDIO peripheral registers to their default reset values.
 157:../stm32_lib/src/stm32f10x_sdio.c ****   * @param  None
 158:../stm32_lib/src/stm32f10x_sdio.c ****   * @retval None
 159:../stm32_lib/src/stm32f10x_sdio.c ****   */
 160:../stm32_lib/src/stm32f10x_sdio.c **** void SDIO_DeInit(void)
 161:../stm32_lib/src/stm32f10x_sdio.c **** {
  26              		.loc 1 161 0
  27              		.cfi_startproc
  28              		@ args = 0, pretend = 0, frame = 0
  29              		@ frame_needed = 1, uses_anonymous_args = 0
  30              		@ link register save eliminated.
  31 0000 80B4     		push	{r7}
  32              	.LCFI0:
  33              		.cfi_def_cfa_offset 4
  34              		.cfi_offset 7, -4
  35 0002 00AF     		add	r7, sp, #0
  36              	.LCFI1:
  37              		.cfi_def_cfa_register 7
 162:../stm32_lib/src/stm32f10x_sdio.c ****   SDIO->POWER = 0x00000000;
  38              		.loc 1 162 0
  39 0004 4FF40043 		mov	r3, #32768
  40 0008 C4F20103 		movt	r3, 16385
  41 000c 4FF00002 		mov	r2, #0
  42 0010 1A60     		str	r2, [r3, #0]
 163:../stm32_lib/src/stm32f10x_sdio.c ****   SDIO->CLKCR = 0x00000000;
  43              		.loc 1 163 0
  44 0012 4FF40043 		mov	r3, #32768
  45 0016 C4F20103 		movt	r3, 16385
  46 001a 4FF00002 		mov	r2, #0
  47 001e 5A60     		str	r2, [r3, #4]
 164:../stm32_lib/src/stm32f10x_sdio.c ****   SDIO->ARG = 0x00000000;
  48              		.loc 1 164 0
  49 0020 4FF40043 		mov	r3, #32768
  50 0024 C4F20103 		movt	r3, 16385
  51 0028 4FF00002 		mov	r2, #0
  52 002c 9A60     		str	r2, [r3, #8]
 165:../stm32_lib/src/stm32f10x_sdio.c ****   SDIO->CMD = 0x00000000;
  53              		.loc 1 165 0
  54 002e 4FF40043 		mov	r3, #32768
  55 0032 C4F20103 		movt	r3, 16385
  56 0036 4FF00002 		mov	r2, #0
  57 003a DA60     		str	r2, [r3, #12]
 166:../stm32_lib/src/stm32f10x_sdio.c ****   SDIO->DTIMER = 0x00000000;
  58              		.loc 1 166 0
  59 003c 4FF40043 		mov	r3, #32768
  60 0040 C4F20103 		movt	r3, 16385
  61 0044 4FF00002 		mov	r2, #0
  62 0048 5A62     		str	r2, [r3, #36]
 167:../stm32_lib/src/stm32f10x_sdio.c ****   SDIO->DLEN = 0x00000000;
  63              		.loc 1 167 0
  64 004a 4FF40043 		mov	r3, #32768
  65 004e C4F20103 		movt	r3, 16385
  66 0052 4FF00002 		mov	r2, #0
  67 0056 9A62     		str	r2, [r3, #40]
 168:../stm32_lib/src/stm32f10x_sdio.c ****   SDIO->DCTRL = 0x00000000;
  68              		.loc 1 168 0
  69 0058 4FF40043 		mov	r3, #32768
  70 005c C4F20103 		movt	r3, 16385
  71 0060 4FF00002 		mov	r2, #0
  72 0064 DA62     		str	r2, [r3, #44]
 169:../stm32_lib/src/stm32f10x_sdio.c ****   SDIO->ICR = 0x00C007FF;
  73              		.loc 1 169 0
  74 0066 4FF40043 		mov	r3, #32768
  75 006a C4F20103 		movt	r3, 16385
  76 006e 40F2FF72 		movw	r2, #2047
  77 0072 C0F2C002 		movt	r2, 192
  78 0076 9A63     		str	r2, [r3, #56]
 170:../stm32_lib/src/stm32f10x_sdio.c ****   SDIO->MASK = 0x00000000;
  79              		.loc 1 170 0
  80 0078 4FF40043 		mov	r3, #32768
  81 007c C4F20103 		movt	r3, 16385
  82 0080 4FF00002 		mov	r2, #0
  83 0084 DA63     		str	r2, [r3, #60]
 171:../stm32_lib/src/stm32f10x_sdio.c **** }
  84              		.loc 1 171 0
  85 0086 BD46     		mov	sp, r7
  86 0088 80BC     		pop	{r7}
  87 008a 7047     		bx	lr
  88              		.cfi_endproc
  89              	.LFE29:
  91              		.align	2
  92              		.global	SDIO_Init
  93              		.thumb
  94              		.thumb_func
  96              	SDIO_Init:
  97              	.LFB30:
 172:../stm32_lib/src/stm32f10x_sdio.c **** 
 173:../stm32_lib/src/stm32f10x_sdio.c **** /**
 174:../stm32_lib/src/stm32f10x_sdio.c ****   * @brief  Initializes the SDIO peripheral according to the specified 
 175:../stm32_lib/src/stm32f10x_sdio.c ****   *   parameters in the SDIO_InitStruct.
 176:../stm32_lib/src/stm32f10x_sdio.c ****   * @param  SDIO_InitStruct : pointer to a SDIO_InitTypeDef structure 
 177:../stm32_lib/src/stm32f10x_sdio.c ****   *   that contains the configuration information for the SDIO peripheral.
 178:../stm32_lib/src/stm32f10x_sdio.c ****   * @retval None
 179:../stm32_lib/src/stm32f10x_sdio.c ****   */
 180:../stm32_lib/src/stm32f10x_sdio.c **** void SDIO_Init(SDIO_InitTypeDef* SDIO_InitStruct)
 181:../stm32_lib/src/stm32f10x_sdio.c **** {
  98              		.loc 1 181 0
  99              		.cfi_startproc
 100              		@ args = 0, pretend = 0, frame = 16
 101              		@ frame_needed = 1, uses_anonymous_args = 0
 102              		@ link register save eliminated.
 103 008c 80B4     		push	{r7}
 104              	.LCFI2:
 105              		.cfi_def_cfa_offset 4
 106              		.cfi_offset 7, -4
 107 008e 85B0     		sub	sp, sp, #20
 108              	.LCFI3:
 109              		.cfi_def_cfa_offset 24
 110 0090 00AF     		add	r7, sp, #0
 111              	.LCFI4:
 112              		.cfi_def_cfa_register 7
 113 0092 7860     		str	r0, [r7, #4]
 182:../stm32_lib/src/stm32f10x_sdio.c ****   uint32_t tmpreg = 0;
 114              		.loc 1 182 0
 115 0094 4FF00003 		mov	r3, #0
 116 0098 FB60     		str	r3, [r7, #12]
 183:../stm32_lib/src/stm32f10x_sdio.c ****     
 184:../stm32_lib/src/stm32f10x_sdio.c ****   /* Check the parameters */
 185:../stm32_lib/src/stm32f10x_sdio.c ****   assert_param(IS_SDIO_CLOCK_EDGE(SDIO_InitStruct->SDIO_ClockEdge));
 186:../stm32_lib/src/stm32f10x_sdio.c ****   assert_param(IS_SDIO_CLOCK_BYPASS(SDIO_InitStruct->SDIO_ClockBypass));
 187:../stm32_lib/src/stm32f10x_sdio.c ****   assert_param(IS_SDIO_CLOCK_POWER_SAVE(SDIO_InitStruct->SDIO_ClockPowerSave));
 188:../stm32_lib/src/stm32f10x_sdio.c ****   assert_param(IS_SDIO_BUS_WIDE(SDIO_InitStruct->SDIO_BusWide));
 189:../stm32_lib/src/stm32f10x_sdio.c ****   assert_param(IS_SDIO_HARDWARE_FLOW_CONTROL(SDIO_InitStruct->SDIO_HardwareFlowControl)); 
 190:../stm32_lib/src/stm32f10x_sdio.c ****    
 191:../stm32_lib/src/stm32f10x_sdio.c **** /*---------------------------- SDIO CLKCR Configuration ------------------------*/  
 192:../stm32_lib/src/stm32f10x_sdio.c ****   /* Get the SDIO CLKCR value */
 193:../stm32_lib/src/stm32f10x_sdio.c ****   tmpreg = SDIO->CLKCR;
 117              		.loc 1 193 0
 118 009a 4FF40043 		mov	r3, #32768
 119 009e C4F20103 		movt	r3, 16385
 120 00a2 5B68     		ldr	r3, [r3, #4]
 121 00a4 FB60     		str	r3, [r7, #12]
 194:../stm32_lib/src/stm32f10x_sdio.c ****   
 195:../stm32_lib/src/stm32f10x_sdio.c ****   /* Clear CLKDIV, PWRSAV, BYPASS, WIDBUS, NEGEDGE, HWFC_EN bits */
 196:../stm32_lib/src/stm32f10x_sdio.c ****   tmpreg &= CLKCR_CLEAR_MASK;
 122              		.loc 1 196 0
 123 00a6 FB68     		ldr	r3, [r7, #12]
 124 00a8 23F4FC43 		bic	r3, r3, #32256
 125 00ac 23F0FF03 		bic	r3, r3, #255
 126 00b0 FB60     		str	r3, [r7, #12]
 197:../stm32_lib/src/stm32f10x_sdio.c ****   
 198:../stm32_lib/src/stm32f10x_sdio.c ****   /* Set CLKDIV bits according to SDIO_ClockDiv value */
 199:../stm32_lib/src/stm32f10x_sdio.c ****   /* Set PWRSAV bit according to SDIO_ClockPowerSave value */
 200:../stm32_lib/src/stm32f10x_sdio.c ****   /* Set BYPASS bit according to SDIO_ClockBypass value */
 201:../stm32_lib/src/stm32f10x_sdio.c ****   /* Set WIDBUS bits according to SDIO_BusWide value */
 202:../stm32_lib/src/stm32f10x_sdio.c ****   /* Set NEGEDGE bits according to SDIO_ClockEdge value */
 203:../stm32_lib/src/stm32f10x_sdio.c ****   /* Set HWFC_EN bits according to SDIO_HardwareFlowControl value */
 204:../stm32_lib/src/stm32f10x_sdio.c ****   tmpreg |= (SDIO_InitStruct->SDIO_ClockDiv  | SDIO_InitStruct->SDIO_ClockPowerSave |
 127              		.loc 1 204 0
 128 00b2 7B68     		ldr	r3, [r7, #4]
 129 00b4 1B7D     		ldrb	r3, [r3, #20]	@ zero_extendqisi2
 130 00b6 1A46     		mov	r2, r3
 131 00b8 7B68     		ldr	r3, [r7, #4]
 132 00ba 9B68     		ldr	r3, [r3, #8]
 133 00bc 1A43     		orrs	r2, r2, r3
 205:../stm32_lib/src/stm32f10x_sdio.c ****              SDIO_InitStruct->SDIO_ClockBypass | SDIO_InitStruct->SDIO_BusWide |
 134              		.loc 1 205 0
 135 00be 7B68     		ldr	r3, [r7, #4]
 136 00c0 5B68     		ldr	r3, [r3, #4]
 204:../stm32_lib/src/stm32f10x_sdio.c ****   tmpreg |= (SDIO_InitStruct->SDIO_ClockDiv  | SDIO_InitStruct->SDIO_ClockPowerSave |
 137              		.loc 1 204 0
 138 00c2 1A43     		orrs	r2, r2, r3
 139              		.loc 1 205 0
 140 00c4 7B68     		ldr	r3, [r7, #4]
 141 00c6 DB68     		ldr	r3, [r3, #12]
 142 00c8 1A43     		orrs	r2, r2, r3
 206:../stm32_lib/src/stm32f10x_sdio.c ****              SDIO_InitStruct->SDIO_ClockEdge | SDIO_InitStruct->SDIO_HardwareFlowControl); 
 143              		.loc 1 206 0
 144 00ca 7B68     		ldr	r3, [r7, #4]
 145 00cc 1B68     		ldr	r3, [r3, #0]
 205:../stm32_lib/src/stm32f10x_sdio.c ****              SDIO_InitStruct->SDIO_ClockBypass | SDIO_InitStruct->SDIO_BusWide |
 146              		.loc 1 205 0
 147 00ce 1A43     		orrs	r2, r2, r3
 148              		.loc 1 206 0
 149 00d0 7B68     		ldr	r3, [r7, #4]
 150 00d2 1B69     		ldr	r3, [r3, #16]
 151 00d4 1343     		orrs	r3, r3, r2
 204:../stm32_lib/src/stm32f10x_sdio.c ****   tmpreg |= (SDIO_InitStruct->SDIO_ClockDiv  | SDIO_InitStruct->SDIO_ClockPowerSave |
 152              		.loc 1 204 0
 153 00d6 FA68     		ldr	r2, [r7, #12]
 154 00d8 1343     		orrs	r3, r3, r2
 155 00da FB60     		str	r3, [r7, #12]
 207:../stm32_lib/src/stm32f10x_sdio.c ****   
 208:../stm32_lib/src/stm32f10x_sdio.c ****   /* Write to SDIO CLKCR */
 209:../stm32_lib/src/stm32f10x_sdio.c ****   SDIO->CLKCR = tmpreg;
 156              		.loc 1 209 0
 157 00dc 4FF40043 		mov	r3, #32768
 158 00e0 C4F20103 		movt	r3, 16385
 159 00e4 FA68     		ldr	r2, [r7, #12]
 160 00e6 5A60     		str	r2, [r3, #4]
 210:../stm32_lib/src/stm32f10x_sdio.c **** }
 161              		.loc 1 210 0
 162 00e8 07F11407 		add	r7, r7, #20
 163 00ec BD46     		mov	sp, r7
 164 00ee 80BC     		pop	{r7}
 165 00f0 7047     		bx	lr
 166              		.cfi_endproc
 167              	.LFE30:
 169 00f2 00BF     		.align	2
 170              		.global	SDIO_StructInit
 171              		.thumb
 172              		.thumb_func
 174              	SDIO_StructInit:
 175              	.LFB31:
 211:../stm32_lib/src/stm32f10x_sdio.c **** 
 212:../stm32_lib/src/stm32f10x_sdio.c **** /**
 213:../stm32_lib/src/stm32f10x_sdio.c ****   * @brief  Fills each SDIO_InitStruct member with its default value.
 214:../stm32_lib/src/stm32f10x_sdio.c ****   * @param  SDIO_InitStruct: pointer to an SDIO_InitTypeDef structure which 
 215:../stm32_lib/src/stm32f10x_sdio.c ****   *   will be initialized.
 216:../stm32_lib/src/stm32f10x_sdio.c ****   * @retval None
 217:../stm32_lib/src/stm32f10x_sdio.c ****   */
 218:../stm32_lib/src/stm32f10x_sdio.c **** void SDIO_StructInit(SDIO_InitTypeDef* SDIO_InitStruct)
 219:../stm32_lib/src/stm32f10x_sdio.c **** {
 176              		.loc 1 219 0
 177              		.cfi_startproc
 178              		@ args = 0, pretend = 0, frame = 8
 179              		@ frame_needed = 1, uses_anonymous_args = 0
 180              		@ link register save eliminated.
 181 00f4 80B4     		push	{r7}
 182              	.LCFI5:
 183              		.cfi_def_cfa_offset 4
 184              		.cfi_offset 7, -4
 185 00f6 83B0     		sub	sp, sp, #12
 186              	.LCFI6:
 187              		.cfi_def_cfa_offset 16
 188 00f8 00AF     		add	r7, sp, #0
 189              	.LCFI7:
 190              		.cfi_def_cfa_register 7
 191 00fa 7860     		str	r0, [r7, #4]
 220:../stm32_lib/src/stm32f10x_sdio.c ****   /* SDIO_InitStruct members default value */
 221:../stm32_lib/src/stm32f10x_sdio.c ****   SDIO_InitStruct->SDIO_ClockDiv = 0x00;
 192              		.loc 1 221 0
 193 00fc 7B68     		ldr	r3, [r7, #4]
 194 00fe 4FF00002 		mov	r2, #0
 195 0102 1A75     		strb	r2, [r3, #20]
 222:../stm32_lib/src/stm32f10x_sdio.c ****   SDIO_InitStruct->SDIO_ClockEdge = SDIO_ClockEdge_Rising;
 196              		.loc 1 222 0
 197 0104 7B68     		ldr	r3, [r7, #4]
 198 0106 4FF00002 		mov	r2, #0
 199 010a 1A60     		str	r2, [r3, #0]
 223:../stm32_lib/src/stm32f10x_sdio.c ****   SDIO_InitStruct->SDIO_ClockBypass = SDIO_ClockBypass_Disable;
 200              		.loc 1 223 0
 201 010c 7B68     		ldr	r3, [r7, #4]
 202 010e 4FF00002 		mov	r2, #0
 203 0112 5A60     		str	r2, [r3, #4]
 224:../stm32_lib/src/stm32f10x_sdio.c ****   SDIO_InitStruct->SDIO_ClockPowerSave = SDIO_ClockPowerSave_Disable;
 204              		.loc 1 224 0
 205 0114 7B68     		ldr	r3, [r7, #4]
 206 0116 4FF00002 		mov	r2, #0
 207 011a 9A60     		str	r2, [r3, #8]
 225:../stm32_lib/src/stm32f10x_sdio.c ****   SDIO_InitStruct->SDIO_BusWide = SDIO_BusWide_1b;
 208              		.loc 1 225 0
 209 011c 7B68     		ldr	r3, [r7, #4]
 210 011e 4FF00002 		mov	r2, #0
 211 0122 DA60     		str	r2, [r3, #12]
 226:../stm32_lib/src/stm32f10x_sdio.c ****   SDIO_InitStruct->SDIO_HardwareFlowControl = SDIO_HardwareFlowControl_Disable;
 212              		.loc 1 226 0
 213 0124 7B68     		ldr	r3, [r7, #4]
 214 0126 4FF00002 		mov	r2, #0
 215 012a 1A61     		str	r2, [r3, #16]
 227:../stm32_lib/src/stm32f10x_sdio.c **** }
 216              		.loc 1 227 0
 217 012c 07F10C07 		add	r7, r7, #12
 218 0130 BD46     		mov	sp, r7
 219 0132 80BC     		pop	{r7}
 220 0134 7047     		bx	lr
 221              		.cfi_endproc
 222              	.LFE31:
 224 0136 00BF     		.align	2
 225              		.global	SDIO_ClockCmd
 226              		.thumb
 227              		.thumb_func
 229              	SDIO_ClockCmd:
 230              	.LFB32:
 228:../stm32_lib/src/stm32f10x_sdio.c **** 
 229:../stm32_lib/src/stm32f10x_sdio.c **** /**
 230:../stm32_lib/src/stm32f10x_sdio.c ****   * @brief  Enables or disables the SDIO Clock.
 231:../stm32_lib/src/stm32f10x_sdio.c ****   * @param  NewState: new state of the SDIO Clock. This parameter can be: ENABLE or DISABLE.
 232:../stm32_lib/src/stm32f10x_sdio.c ****   * @retval None
 233:../stm32_lib/src/stm32f10x_sdio.c ****   */
 234:../stm32_lib/src/stm32f10x_sdio.c **** void SDIO_ClockCmd(FunctionalState NewState)
 235:../stm32_lib/src/stm32f10x_sdio.c **** {
 231              		.loc 1 235 0
 232              		.cfi_startproc
 233              		@ args = 0, pretend = 0, frame = 8
 234              		@ frame_needed = 1, uses_anonymous_args = 0
 235              		@ link register save eliminated.
 236 0138 80B4     		push	{r7}
 237              	.LCFI8:
 238              		.cfi_def_cfa_offset 4
 239              		.cfi_offset 7, -4
 240 013a 83B0     		sub	sp, sp, #12
 241              	.LCFI9:
 242              		.cfi_def_cfa_offset 16
 243 013c 00AF     		add	r7, sp, #0
 244              	.LCFI10:
 245              		.cfi_def_cfa_register 7
 246 013e 0346     		mov	r3, r0
 247 0140 FB71     		strb	r3, [r7, #7]
 236:../stm32_lib/src/stm32f10x_sdio.c ****   /* Check the parameters */
 237:../stm32_lib/src/stm32f10x_sdio.c ****   assert_param(IS_FUNCTIONAL_STATE(NewState));
 238:../stm32_lib/src/stm32f10x_sdio.c ****   
 239:../stm32_lib/src/stm32f10x_sdio.c ****   *(__IO uint32_t *) CLKCR_CLKEN_BB = (uint32_t)NewState;
 248              		.loc 1 239 0
 249 0142 4FF0A003 		mov	r3, #160
 250 0146 C4F23023 		movt	r3, 16944
 251 014a FA79     		ldrb	r2, [r7, #7]	@ zero_extendqisi2
 252 014c 1A60     		str	r2, [r3, #0]
 240:../stm32_lib/src/stm32f10x_sdio.c **** }
 253              		.loc 1 240 0
 254 014e 07F10C07 		add	r7, r7, #12
 255 0152 BD46     		mov	sp, r7
 256 0154 80BC     		pop	{r7}
 257 0156 7047     		bx	lr
 258              		.cfi_endproc
 259              	.LFE32:
 261              		.align	2
 262              		.global	SDIO_SetPowerState
 263              		.thumb
 264              		.thumb_func
 266              	SDIO_SetPowerState:
 267              	.LFB33:
 241:../stm32_lib/src/stm32f10x_sdio.c **** 
 242:../stm32_lib/src/stm32f10x_sdio.c **** /**
 243:../stm32_lib/src/stm32f10x_sdio.c ****   * @brief  Sets the power status of the controller.
 244:../stm32_lib/src/stm32f10x_sdio.c ****   * @param  SDIO_PowerState: new state of the Power state. 
 245:../stm32_lib/src/stm32f10x_sdio.c ****   *   This parameter can be one of the following values:
 246:../stm32_lib/src/stm32f10x_sdio.c ****   *     @arg SDIO_PowerState_OFF
 247:../stm32_lib/src/stm32f10x_sdio.c ****   *     @arg SDIO_PowerState_ON
 248:../stm32_lib/src/stm32f10x_sdio.c ****   * @retval None
 249:../stm32_lib/src/stm32f10x_sdio.c ****   */
 250:../stm32_lib/src/stm32f10x_sdio.c **** void SDIO_SetPowerState(uint32_t SDIO_PowerState)
 251:../stm32_lib/src/stm32f10x_sdio.c **** {
 268              		.loc 1 251 0
 269              		.cfi_startproc
 270              		@ args = 0, pretend = 0, frame = 8
 271              		@ frame_needed = 1, uses_anonymous_args = 0
 272              		@ link register save eliminated.
 273 0158 80B4     		push	{r7}
 274              	.LCFI11:
 275              		.cfi_def_cfa_offset 4
 276              		.cfi_offset 7, -4
 277 015a 83B0     		sub	sp, sp, #12
 278              	.LCFI12:
 279              		.cfi_def_cfa_offset 16
 280 015c 00AF     		add	r7, sp, #0
 281              	.LCFI13:
 282              		.cfi_def_cfa_register 7
 283 015e 7860     		str	r0, [r7, #4]
 252:../stm32_lib/src/stm32f10x_sdio.c ****   /* Check the parameters */
 253:../stm32_lib/src/stm32f10x_sdio.c ****   assert_param(IS_SDIO_POWER_STATE(SDIO_PowerState));
 254:../stm32_lib/src/stm32f10x_sdio.c ****   
 255:../stm32_lib/src/stm32f10x_sdio.c ****   SDIO->POWER &= PWR_PWRCTRL_MASK;
 284              		.loc 1 255 0
 285 0160 4FF40043 		mov	r3, #32768
 286 0164 C4F20103 		movt	r3, 16385
 287 0168 4FF40042 		mov	r2, #32768
 288 016c C4F20102 		movt	r2, 16385
 289 0170 1268     		ldr	r2, [r2, #0]
 290 0172 22F00302 		bic	r2, r2, #3
 291 0176 1A60     		str	r2, [r3, #0]
 256:../stm32_lib/src/stm32f10x_sdio.c ****   SDIO->POWER |= SDIO_PowerState;
 292              		.loc 1 256 0
 293 0178 4FF40043 		mov	r3, #32768
 294 017c C4F20103 		movt	r3, 16385
 295 0180 4FF40042 		mov	r2, #32768
 296 0184 C4F20102 		movt	r2, 16385
 297 0188 1168     		ldr	r1, [r2, #0]
 298 018a 7A68     		ldr	r2, [r7, #4]
 299 018c 0A43     		orrs	r2, r2, r1
 300 018e 1A60     		str	r2, [r3, #0]
 257:../stm32_lib/src/stm32f10x_sdio.c **** }
 301              		.loc 1 257 0
 302 0190 07F10C07 		add	r7, r7, #12
 303 0194 BD46     		mov	sp, r7
 304 0196 80BC     		pop	{r7}
 305 0198 7047     		bx	lr
 306              		.cfi_endproc
 307              	.LFE33:
 309 019a 00BF     		.align	2
 310              		.global	SDIO_GetPowerState
 311              		.thumb
 312              		.thumb_func
 314              	SDIO_GetPowerState:
 315              	.LFB34:
 258:../stm32_lib/src/stm32f10x_sdio.c **** 
 259:../stm32_lib/src/stm32f10x_sdio.c **** /**
 260:../stm32_lib/src/stm32f10x_sdio.c ****   * @brief  Gets the power status of the controller.
 261:../stm32_lib/src/stm32f10x_sdio.c ****   * @param  None
 262:../stm32_lib/src/stm32f10x_sdio.c ****   * @retval Power status of the controller. The returned value can
 263:../stm32_lib/src/stm32f10x_sdio.c ****   *   be one of the following:
 264:../stm32_lib/src/stm32f10x_sdio.c ****   * - 0x00: Power OFF
 265:../stm32_lib/src/stm32f10x_sdio.c ****   * - 0x02: Power UP
 266:../stm32_lib/src/stm32f10x_sdio.c ****   * - 0x03: Power ON 
 267:../stm32_lib/src/stm32f10x_sdio.c ****   */
 268:../stm32_lib/src/stm32f10x_sdio.c **** uint32_t SDIO_GetPowerState(void)
 269:../stm32_lib/src/stm32f10x_sdio.c **** {
 316              		.loc 1 269 0
 317              		.cfi_startproc
 318              		@ args = 0, pretend = 0, frame = 0
 319              		@ frame_needed = 1, uses_anonymous_args = 0
 320              		@ link register save eliminated.
 321 019c 80B4     		push	{r7}
 322              	.LCFI14:
 323              		.cfi_def_cfa_offset 4
 324              		.cfi_offset 7, -4
 325 019e 00AF     		add	r7, sp, #0
 326              	.LCFI15:
 327              		.cfi_def_cfa_register 7
 270:../stm32_lib/src/stm32f10x_sdio.c ****   return (SDIO->POWER & (~PWR_PWRCTRL_MASK));
 328              		.loc 1 270 0
 329 01a0 4FF40043 		mov	r3, #32768
 330 01a4 C4F20103 		movt	r3, 16385
 331 01a8 1B68     		ldr	r3, [r3, #0]
 332 01aa 03F00303 		and	r3, r3, #3
 271:../stm32_lib/src/stm32f10x_sdio.c **** }
 333              		.loc 1 271 0
 334 01ae 1846     		mov	r0, r3
 335 01b0 BD46     		mov	sp, r7
 336 01b2 80BC     		pop	{r7}
 337 01b4 7047     		bx	lr
 338              		.cfi_endproc
 339              	.LFE34:
 341 01b6 00BF     		.align	2
 342              		.global	SDIO_ITConfig
 343              		.thumb
 344              		.thumb_func
 346              	SDIO_ITConfig:
 347              	.LFB35:
 272:../stm32_lib/src/stm32f10x_sdio.c **** 
 273:../stm32_lib/src/stm32f10x_sdio.c **** /**
 274:../stm32_lib/src/stm32f10x_sdio.c ****   * @brief  Enables or disables the SDIO interrupts.
 275:../stm32_lib/src/stm32f10x_sdio.c ****   * @param  SDIO_IT: specifies the SDIO interrupt sources to be enabled or disabled.
 276:../stm32_lib/src/stm32f10x_sdio.c ****   *   This parameter can be one or a combination of the following values:
 277:../stm32_lib/src/stm32f10x_sdio.c ****   *     @arg SDIO_IT_CCRCFAIL: Command response received (CRC check failed) interrupt
 278:../stm32_lib/src/stm32f10x_sdio.c ****   *     @arg SDIO_IT_DCRCFAIL: Data block sent/received (CRC check failed) interrupt
 279:../stm32_lib/src/stm32f10x_sdio.c ****   *     @arg SDIO_IT_CTIMEOUT: Command response timeout interrupt
 280:../stm32_lib/src/stm32f10x_sdio.c ****   *     @arg SDIO_IT_DTIMEOUT: Data timeout interrupt
 281:../stm32_lib/src/stm32f10x_sdio.c ****   *     @arg SDIO_IT_TXUNDERR: Transmit FIFO underrun error interrupt
 282:../stm32_lib/src/stm32f10x_sdio.c ****   *     @arg SDIO_IT_RXOVERR:  Received FIFO overrun error interrupt
 283:../stm32_lib/src/stm32f10x_sdio.c ****   *     @arg SDIO_IT_CMDREND:  Command response received (CRC check passed) interrupt
 284:../stm32_lib/src/stm32f10x_sdio.c ****   *     @arg SDIO_IT_CMDSENT:  Command sent (no response required) interrupt
 285:../stm32_lib/src/stm32f10x_sdio.c ****   *     @arg SDIO_IT_DATAEND:  Data end (data counter, SDIDCOUNT, is zero) interrupt
 286:../stm32_lib/src/stm32f10x_sdio.c ****   *     @arg SDIO_IT_STBITERR: Start bit not detected on all data signals in wide 
 287:../stm32_lib/src/stm32f10x_sdio.c ****   *                            bus mode interrupt
 288:../stm32_lib/src/stm32f10x_sdio.c ****   *     @arg SDIO_IT_DBCKEND:  Data block sent/received (CRC check passed) interrupt
 289:../stm32_lib/src/stm32f10x_sdio.c ****   *     @arg SDIO_IT_CMDACT:   Command transfer in progress interrupt
 290:../stm32_lib/src/stm32f10x_sdio.c ****   *     @arg SDIO_IT_TXACT:    Data transmit in progress interrupt
 291:../stm32_lib/src/stm32f10x_sdio.c ****   *     @arg SDIO_IT_RXACT:    Data receive in progress interrupt
 292:../stm32_lib/src/stm32f10x_sdio.c ****   *     @arg SDIO_IT_TXFIFOHE: Transmit FIFO Half Empty interrupt
 293:../stm32_lib/src/stm32f10x_sdio.c ****   *     @arg SDIO_IT_RXFIFOHF: Receive FIFO Half Full interrupt
 294:../stm32_lib/src/stm32f10x_sdio.c ****   *     @arg SDIO_IT_TXFIFOF:  Transmit FIFO full interrupt
 295:../stm32_lib/src/stm32f10x_sdio.c ****   *     @arg SDIO_IT_RXFIFOF:  Receive FIFO full interrupt
 296:../stm32_lib/src/stm32f10x_sdio.c ****   *     @arg SDIO_IT_TXFIFOE:  Transmit FIFO empty interrupt
 297:../stm32_lib/src/stm32f10x_sdio.c ****   *     @arg SDIO_IT_RXFIFOE:  Receive FIFO empty interrupt
 298:../stm32_lib/src/stm32f10x_sdio.c ****   *     @arg SDIO_IT_TXDAVL:   Data available in transmit FIFO interrupt
 299:../stm32_lib/src/stm32f10x_sdio.c ****   *     @arg SDIO_IT_RXDAVL:   Data available in receive FIFO interrupt
 300:../stm32_lib/src/stm32f10x_sdio.c ****   *     @arg SDIO_IT_SDIOIT:   SD I/O interrupt received interrupt
 301:../stm32_lib/src/stm32f10x_sdio.c ****   *     @arg SDIO_IT_CEATAEND: CE-ATA command completion signal received for CMD61 interrupt
 302:../stm32_lib/src/stm32f10x_sdio.c ****   * @param  NewState: new state of the specified SDIO interrupts.
 303:../stm32_lib/src/stm32f10x_sdio.c ****   *   This parameter can be: ENABLE or DISABLE.
 304:../stm32_lib/src/stm32f10x_sdio.c ****   * @retval None 
 305:../stm32_lib/src/stm32f10x_sdio.c ****   */
 306:../stm32_lib/src/stm32f10x_sdio.c **** void SDIO_ITConfig(uint32_t SDIO_IT, FunctionalState NewState)
 307:../stm32_lib/src/stm32f10x_sdio.c **** {
 348              		.loc 1 307 0
 349              		.cfi_startproc
 350              		@ args = 0, pretend = 0, frame = 8
 351              		@ frame_needed = 1, uses_anonymous_args = 0
 352              		@ link register save eliminated.
 353 01b8 80B4     		push	{r7}
 354              	.LCFI16:
 355              		.cfi_def_cfa_offset 4
 356              		.cfi_offset 7, -4
 357 01ba 83B0     		sub	sp, sp, #12
 358              	.LCFI17:
 359              		.cfi_def_cfa_offset 16
 360 01bc 00AF     		add	r7, sp, #0
 361              	.LCFI18:
 362              		.cfi_def_cfa_register 7
 363 01be 7860     		str	r0, [r7, #4]
 364 01c0 0B46     		mov	r3, r1
 365 01c2 FB70     		strb	r3, [r7, #3]
 308:../stm32_lib/src/stm32f10x_sdio.c ****   /* Check the parameters */
 309:../stm32_lib/src/stm32f10x_sdio.c ****   assert_param(IS_SDIO_IT(SDIO_IT));
 310:../stm32_lib/src/stm32f10x_sdio.c ****   assert_param(IS_FUNCTIONAL_STATE(NewState));
 311:../stm32_lib/src/stm32f10x_sdio.c ****   
 312:../stm32_lib/src/stm32f10x_sdio.c ****   if (NewState != DISABLE)
 366              		.loc 1 312 0
 367 01c4 FB78     		ldrb	r3, [r7, #3]	@ zero_extendqisi2
 368 01c6 002B     		cmp	r3, #0
 369 01c8 0CD0     		beq	.L8
 313:../stm32_lib/src/stm32f10x_sdio.c ****   {
 314:../stm32_lib/src/stm32f10x_sdio.c ****     /* Enable the SDIO interrupts */
 315:../stm32_lib/src/stm32f10x_sdio.c ****     SDIO->MASK |= SDIO_IT;
 370              		.loc 1 315 0
 371 01ca 4FF40043 		mov	r3, #32768
 372 01ce C4F20103 		movt	r3, 16385
 373 01d2 4FF40042 		mov	r2, #32768
 374 01d6 C4F20102 		movt	r2, 16385
 375 01da D16B     		ldr	r1, [r2, #60]
 376 01dc 7A68     		ldr	r2, [r7, #4]
 377 01de 0A43     		orrs	r2, r2, r1
 378 01e0 DA63     		str	r2, [r3, #60]
 379 01e2 0DE0     		b	.L7
 380              	.L8:
 316:../stm32_lib/src/stm32f10x_sdio.c ****   }
 317:../stm32_lib/src/stm32f10x_sdio.c ****   else
 318:../stm32_lib/src/stm32f10x_sdio.c ****   {
 319:../stm32_lib/src/stm32f10x_sdio.c ****     /* Disable the SDIO interrupts */
 320:../stm32_lib/src/stm32f10x_sdio.c ****     SDIO->MASK &= ~SDIO_IT;
 381              		.loc 1 320 0
 382 01e4 4FF40043 		mov	r3, #32768
 383 01e8 C4F20103 		movt	r3, 16385
 384 01ec 4FF40042 		mov	r2, #32768
 385 01f0 C4F20102 		movt	r2, 16385
 386 01f4 D16B     		ldr	r1, [r2, #60]
 387 01f6 7A68     		ldr	r2, [r7, #4]
 388 01f8 6FEA0202 		mvn	r2, r2
 389 01fc 0A40     		ands	r2, r2, r1
 390 01fe DA63     		str	r2, [r3, #60]
 391              	.L7:
 321:../stm32_lib/src/stm32f10x_sdio.c ****   } 
 322:../stm32_lib/src/stm32f10x_sdio.c **** }
 392              		.loc 1 322 0
 393 0200 07F10C07 		add	r7, r7, #12
 394 0204 BD46     		mov	sp, r7
 395 0206 80BC     		pop	{r7}
 396 0208 7047     		bx	lr
 397              		.cfi_endproc
 398              	.LFE35:
 400 020a 00BF     		.align	2
 401              		.global	SDIO_DMACmd
 402              		.thumb
 403              		.thumb_func
 405              	SDIO_DMACmd:
 406              	.LFB36:
 323:../stm32_lib/src/stm32f10x_sdio.c **** 
 324:../stm32_lib/src/stm32f10x_sdio.c **** /**
 325:../stm32_lib/src/stm32f10x_sdio.c ****   * @brief  Enables or disables the SDIO DMA request.
 326:../stm32_lib/src/stm32f10x_sdio.c ****   * @param  NewState: new state of the selected SDIO DMA request.
 327:../stm32_lib/src/stm32f10x_sdio.c ****   *   This parameter can be: ENABLE or DISABLE.
 328:../stm32_lib/src/stm32f10x_sdio.c ****   * @retval None
 329:../stm32_lib/src/stm32f10x_sdio.c ****   */
 330:../stm32_lib/src/stm32f10x_sdio.c **** void SDIO_DMACmd(FunctionalState NewState)
 331:../stm32_lib/src/stm32f10x_sdio.c **** {
 407              		.loc 1 331 0
 408              		.cfi_startproc
 409              		@ args = 0, pretend = 0, frame = 8
 410              		@ frame_needed = 1, uses_anonymous_args = 0
 411              		@ link register save eliminated.
 412 020c 80B4     		push	{r7}
 413              	.LCFI19:
 414              		.cfi_def_cfa_offset 4
 415              		.cfi_offset 7, -4
 416 020e 83B0     		sub	sp, sp, #12
 417              	.LCFI20:
 418              		.cfi_def_cfa_offset 16
 419 0210 00AF     		add	r7, sp, #0
 420              	.LCFI21:
 421              		.cfi_def_cfa_register 7
 422 0212 0346     		mov	r3, r0
 423 0214 FB71     		strb	r3, [r7, #7]
 332:../stm32_lib/src/stm32f10x_sdio.c ****   /* Check the parameters */
 333:../stm32_lib/src/stm32f10x_sdio.c ****   assert_param(IS_FUNCTIONAL_STATE(NewState));
 334:../stm32_lib/src/stm32f10x_sdio.c ****   
 335:../stm32_lib/src/stm32f10x_sdio.c ****   *(__IO uint32_t *) DCTRL_DMAEN_BB = (uint32_t)NewState;
 424              		.loc 1 335 0
 425 0216 40F28C53 		movw	r3, #1420
 426 021a C4F23023 		movt	r3, 16944
 427 021e FA79     		ldrb	r2, [r7, #7]	@ zero_extendqisi2
 428 0220 1A60     		str	r2, [r3, #0]
 336:../stm32_lib/src/stm32f10x_sdio.c **** }
 429              		.loc 1 336 0
 430 0222 07F10C07 		add	r7, r7, #12
 431 0226 BD46     		mov	sp, r7
 432 0228 80BC     		pop	{r7}
 433 022a 7047     		bx	lr
 434              		.cfi_endproc
 435              	.LFE36:
 437              		.align	2
 438              		.global	SDIO_SendCommand
 439              		.thumb
 440              		.thumb_func
 442              	SDIO_SendCommand:
 443              	.LFB37:
 337:../stm32_lib/src/stm32f10x_sdio.c **** 
 338:../stm32_lib/src/stm32f10x_sdio.c **** /**
 339:../stm32_lib/src/stm32f10x_sdio.c ****   * @brief  Initializes the SDIO Command according to the specified 
 340:../stm32_lib/src/stm32f10x_sdio.c ****   *   parameters in the SDIO_CmdInitStruct and send the command.
 341:../stm32_lib/src/stm32f10x_sdio.c ****   * @param  SDIO_CmdInitStruct : pointer to a SDIO_CmdInitTypeDef 
 342:../stm32_lib/src/stm32f10x_sdio.c ****   *   structure that contains the configuration information for the SDIO command.
 343:../stm32_lib/src/stm32f10x_sdio.c ****   * @retval None
 344:../stm32_lib/src/stm32f10x_sdio.c ****   */
 345:../stm32_lib/src/stm32f10x_sdio.c **** void SDIO_SendCommand(SDIO_CmdInitTypeDef *SDIO_CmdInitStruct)
 346:../stm32_lib/src/stm32f10x_sdio.c **** {
 444              		.loc 1 346 0
 445              		.cfi_startproc
 446              		@ args = 0, pretend = 0, frame = 16
 447              		@ frame_needed = 1, uses_anonymous_args = 0
 448              		@ link register save eliminated.
 449 022c 80B4     		push	{r7}
 450              	.LCFI22:
 451              		.cfi_def_cfa_offset 4
 452              		.cfi_offset 7, -4
 453 022e 85B0     		sub	sp, sp, #20
 454              	.LCFI23:
 455              		.cfi_def_cfa_offset 24
 456 0230 00AF     		add	r7, sp, #0
 457              	.LCFI24:
 458              		.cfi_def_cfa_register 7
 459 0232 7860     		str	r0, [r7, #4]
 347:../stm32_lib/src/stm32f10x_sdio.c ****   uint32_t tmpreg = 0;
 460              		.loc 1 347 0
 461 0234 4FF00003 		mov	r3, #0
 462 0238 FB60     		str	r3, [r7, #12]
 348:../stm32_lib/src/stm32f10x_sdio.c ****   
 349:../stm32_lib/src/stm32f10x_sdio.c ****   /* Check the parameters */
 350:../stm32_lib/src/stm32f10x_sdio.c ****   assert_param(IS_SDIO_CMD_INDEX(SDIO_CmdInitStruct->SDIO_CmdIndex));
 351:../stm32_lib/src/stm32f10x_sdio.c ****   assert_param(IS_SDIO_RESPONSE(SDIO_CmdInitStruct->SDIO_Response));
 352:../stm32_lib/src/stm32f10x_sdio.c ****   assert_param(IS_SDIO_WAIT(SDIO_CmdInitStruct->SDIO_Wait));
 353:../stm32_lib/src/stm32f10x_sdio.c ****   assert_param(IS_SDIO_CPSM(SDIO_CmdInitStruct->SDIO_CPSM));
 354:../stm32_lib/src/stm32f10x_sdio.c ****   
 355:../stm32_lib/src/stm32f10x_sdio.c **** /*---------------------------- SDIO ARG Configuration ------------------------*/
 356:../stm32_lib/src/stm32f10x_sdio.c ****   /* Set the SDIO Argument value */
 357:../stm32_lib/src/stm32f10x_sdio.c ****   SDIO->ARG = SDIO_CmdInitStruct->SDIO_Argument;
 463              		.loc 1 357 0
 464 023a 4FF40043 		mov	r3, #32768
 465 023e C4F20103 		movt	r3, 16385
 466 0242 7A68     		ldr	r2, [r7, #4]
 467 0244 1268     		ldr	r2, [r2, #0]
 468 0246 9A60     		str	r2, [r3, #8]
 358:../stm32_lib/src/stm32f10x_sdio.c ****   
 359:../stm32_lib/src/stm32f10x_sdio.c **** /*---------------------------- SDIO CMD Configuration ------------------------*/  
 360:../stm32_lib/src/stm32f10x_sdio.c ****   /* Get the SDIO CMD value */
 361:../stm32_lib/src/stm32f10x_sdio.c ****   tmpreg = SDIO->CMD;
 469              		.loc 1 361 0
 470 0248 4FF40043 		mov	r3, #32768
 471 024c C4F20103 		movt	r3, 16385
 472 0250 DB68     		ldr	r3, [r3, #12]
 473 0252 FB60     		str	r3, [r7, #12]
 362:../stm32_lib/src/stm32f10x_sdio.c ****   /* Clear CMDINDEX, WAITRESP, WAITINT, WAITPEND, CPSMEN bits */
 363:../stm32_lib/src/stm32f10x_sdio.c ****   tmpreg &= CMD_CLEAR_MASK;
 474              		.loc 1 363 0
 475 0254 FB68     		ldr	r3, [r7, #12]
 476 0256 23F4FE63 		bic	r3, r3, #2032
 477 025a 23F00F03 		bic	r3, r3, #15
 478 025e FB60     		str	r3, [r7, #12]
 364:../stm32_lib/src/stm32f10x_sdio.c ****   /* Set CMDINDEX bits according to SDIO_CmdIndex value */
 365:../stm32_lib/src/stm32f10x_sdio.c ****   /* Set WAITRESP bits according to SDIO_Response value */
 366:../stm32_lib/src/stm32f10x_sdio.c ****   /* Set WAITINT and WAITPEND bits according to SDIO_Wait value */
 367:../stm32_lib/src/stm32f10x_sdio.c ****   /* Set CPSMEN bits according to SDIO_CPSM value */
 368:../stm32_lib/src/stm32f10x_sdio.c ****   tmpreg |= (uint32_t)SDIO_CmdInitStruct->SDIO_CmdIndex | SDIO_CmdInitStruct->SDIO_Response
 479              		.loc 1 368 0
 480 0260 7B68     		ldr	r3, [r7, #4]
 481 0262 5A68     		ldr	r2, [r3, #4]
 482 0264 7B68     		ldr	r3, [r7, #4]
 483 0266 9B68     		ldr	r3, [r3, #8]
 484 0268 1A43     		orrs	r2, r2, r3
 369:../stm32_lib/src/stm32f10x_sdio.c ****            | SDIO_CmdInitStruct->SDIO_Wait | SDIO_CmdInitStruct->SDIO_CPSM;
 485              		.loc 1 369 0
 486 026a 7B68     		ldr	r3, [r7, #4]
 487 026c DB68     		ldr	r3, [r3, #12]
 488 026e 1A43     		orrs	r2, r2, r3
 489 0270 7B68     		ldr	r3, [r7, #4]
 490 0272 1B69     		ldr	r3, [r3, #16]
 491 0274 1343     		orrs	r3, r3, r2
 368:../stm32_lib/src/stm32f10x_sdio.c ****   tmpreg |= (uint32_t)SDIO_CmdInitStruct->SDIO_CmdIndex | SDIO_CmdInitStruct->SDIO_Response
 492              		.loc 1 368 0
 493 0276 FA68     		ldr	r2, [r7, #12]
 494 0278 1343     		orrs	r3, r3, r2
 495 027a FB60     		str	r3, [r7, #12]
 370:../stm32_lib/src/stm32f10x_sdio.c ****   
 371:../stm32_lib/src/stm32f10x_sdio.c ****   /* Write to SDIO CMD */
 372:../stm32_lib/src/stm32f10x_sdio.c ****   SDIO->CMD = tmpreg;
 496              		.loc 1 372 0
 497 027c 4FF40043 		mov	r3, #32768
 498 0280 C4F20103 		movt	r3, 16385
 499 0284 FA68     		ldr	r2, [r7, #12]
 500 0286 DA60     		str	r2, [r3, #12]
 373:../stm32_lib/src/stm32f10x_sdio.c **** }
 501              		.loc 1 373 0
 502 0288 07F11407 		add	r7, r7, #20
 503 028c BD46     		mov	sp, r7
 504 028e 80BC     		pop	{r7}
 505 0290 7047     		bx	lr
 506              		.cfi_endproc
 507              	.LFE37:
 509 0292 00BF     		.align	2
 510              		.global	SDIO_CmdStructInit
 511              		.thumb
 512              		.thumb_func
 514              	SDIO_CmdStructInit:
 515              	.LFB38:
 374:../stm32_lib/src/stm32f10x_sdio.c **** 
 375:../stm32_lib/src/stm32f10x_sdio.c **** /**
 376:../stm32_lib/src/stm32f10x_sdio.c ****   * @brief  Fills each SDIO_CmdInitStruct member with its default value.
 377:../stm32_lib/src/stm32f10x_sdio.c ****   * @param  SDIO_CmdInitStruct: pointer to an SDIO_CmdInitTypeDef 
 378:../stm32_lib/src/stm32f10x_sdio.c ****   *   structure which will be initialized.
 379:../stm32_lib/src/stm32f10x_sdio.c ****   * @retval None
 380:../stm32_lib/src/stm32f10x_sdio.c ****   */
 381:../stm32_lib/src/stm32f10x_sdio.c **** void SDIO_CmdStructInit(SDIO_CmdInitTypeDef* SDIO_CmdInitStruct)
 382:../stm32_lib/src/stm32f10x_sdio.c **** {
 516              		.loc 1 382 0
 517              		.cfi_startproc
 518              		@ args = 0, pretend = 0, frame = 8
 519              		@ frame_needed = 1, uses_anonymous_args = 0
 520              		@ link register save eliminated.
 521 0294 80B4     		push	{r7}
 522              	.LCFI25:
 523              		.cfi_def_cfa_offset 4
 524              		.cfi_offset 7, -4
 525 0296 83B0     		sub	sp, sp, #12
 526              	.LCFI26:
 527              		.cfi_def_cfa_offset 16
 528 0298 00AF     		add	r7, sp, #0
 529              	.LCFI27:
 530              		.cfi_def_cfa_register 7
 531 029a 7860     		str	r0, [r7, #4]
 383:../stm32_lib/src/stm32f10x_sdio.c ****   /* SDIO_CmdInitStruct members default value */
 384:../stm32_lib/src/stm32f10x_sdio.c ****   SDIO_CmdInitStruct->SDIO_Argument = 0x00;
 532              		.loc 1 384 0
 533 029c 7B68     		ldr	r3, [r7, #4]
 534 029e 4FF00002 		mov	r2, #0
 535 02a2 1A60     		str	r2, [r3, #0]
 385:../stm32_lib/src/stm32f10x_sdio.c ****   SDIO_CmdInitStruct->SDIO_CmdIndex = 0x00;
 536              		.loc 1 385 0
 537 02a4 7B68     		ldr	r3, [r7, #4]
 538 02a6 4FF00002 		mov	r2, #0
 539 02aa 5A60     		str	r2, [r3, #4]
 386:../stm32_lib/src/stm32f10x_sdio.c ****   SDIO_CmdInitStruct->SDIO_Response = SDIO_Response_No;
 540              		.loc 1 386 0
 541 02ac 7B68     		ldr	r3, [r7, #4]
 542 02ae 4FF00002 		mov	r2, #0
 543 02b2 9A60     		str	r2, [r3, #8]
 387:../stm32_lib/src/stm32f10x_sdio.c ****   SDIO_CmdInitStruct->SDIO_Wait = SDIO_Wait_No;
 544              		.loc 1 387 0
 545 02b4 7B68     		ldr	r3, [r7, #4]
 546 02b6 4FF00002 		mov	r2, #0
 547 02ba DA60     		str	r2, [r3, #12]
 388:../stm32_lib/src/stm32f10x_sdio.c ****   SDIO_CmdInitStruct->SDIO_CPSM = SDIO_CPSM_Disable;
 548              		.loc 1 388 0
 549 02bc 7B68     		ldr	r3, [r7, #4]
 550 02be 4FF00002 		mov	r2, #0
 551 02c2 1A61     		str	r2, [r3, #16]
 389:../stm32_lib/src/stm32f10x_sdio.c **** }
 552              		.loc 1 389 0
 553 02c4 07F10C07 		add	r7, r7, #12
 554 02c8 BD46     		mov	sp, r7
 555 02ca 80BC     		pop	{r7}
 556 02cc 7047     		bx	lr
 557              		.cfi_endproc
 558              	.LFE38:
 560 02ce 00BF     		.align	2
 561              		.global	SDIO_GetCommandResponse
 562              		.thumb
 563              		.thumb_func
 565              	SDIO_GetCommandResponse:
 566              	.LFB39:
 390:../stm32_lib/src/stm32f10x_sdio.c **** 
 391:../stm32_lib/src/stm32f10x_sdio.c **** /**
 392:../stm32_lib/src/stm32f10x_sdio.c ****   * @brief  Returns command index of last command for which response received.
 393:../stm32_lib/src/stm32f10x_sdio.c ****   * @param  None
 394:../stm32_lib/src/stm32f10x_sdio.c ****   * @retval Returns the command index of the last command response received.
 395:../stm32_lib/src/stm32f10x_sdio.c ****   */
 396:../stm32_lib/src/stm32f10x_sdio.c **** uint8_t SDIO_GetCommandResponse(void)
 397:../stm32_lib/src/stm32f10x_sdio.c **** {
 567              		.loc 1 397 0
 568              		.cfi_startproc
 569              		@ args = 0, pretend = 0, frame = 0
 570              		@ frame_needed = 1, uses_anonymous_args = 0
 571              		@ link register save eliminated.
 572 02d0 80B4     		push	{r7}
 573              	.LCFI28:
 574              		.cfi_def_cfa_offset 4
 575              		.cfi_offset 7, -4
 576 02d2 00AF     		add	r7, sp, #0
 577              	.LCFI29:
 578              		.cfi_def_cfa_register 7
 398:../stm32_lib/src/stm32f10x_sdio.c ****   return (uint8_t)(SDIO->RESPCMD);
 579              		.loc 1 398 0
 580 02d4 4FF40043 		mov	r3, #32768
 581 02d8 C4F20103 		movt	r3, 16385
 582 02dc 1B69     		ldr	r3, [r3, #16]
 583 02de DBB2     		uxtb	r3, r3
 399:../stm32_lib/src/stm32f10x_sdio.c **** }
 584              		.loc 1 399 0
 585 02e0 1846     		mov	r0, r3
 586 02e2 BD46     		mov	sp, r7
 587 02e4 80BC     		pop	{r7}
 588 02e6 7047     		bx	lr
 589              		.cfi_endproc
 590              	.LFE39:
 592              		.align	2
 593              		.global	SDIO_GetResponse
 594              		.thumb
 595              		.thumb_func
 597              	SDIO_GetResponse:
 598              	.LFB40:
 400:../stm32_lib/src/stm32f10x_sdio.c **** 
 401:../stm32_lib/src/stm32f10x_sdio.c **** /**
 402:../stm32_lib/src/stm32f10x_sdio.c ****   * @brief  Returns response received from the card for the last command.
 403:../stm32_lib/src/stm32f10x_sdio.c ****   * @param  SDIO_RESP: Specifies the SDIO response register. 
 404:../stm32_lib/src/stm32f10x_sdio.c ****   *   This parameter can be one of the following values:
 405:../stm32_lib/src/stm32f10x_sdio.c ****   *     @arg SDIO_RESP1: Response Register 1
 406:../stm32_lib/src/stm32f10x_sdio.c ****   *     @arg SDIO_RESP2: Response Register 2
 407:../stm32_lib/src/stm32f10x_sdio.c ****   *     @arg SDIO_RESP3: Response Register 3
 408:../stm32_lib/src/stm32f10x_sdio.c ****   *     @arg SDIO_RESP4: Response Register 4
 409:../stm32_lib/src/stm32f10x_sdio.c ****   * @retval The Corresponding response register value.
 410:../stm32_lib/src/stm32f10x_sdio.c ****   */
 411:../stm32_lib/src/stm32f10x_sdio.c **** uint32_t SDIO_GetResponse(uint32_t SDIO_RESP)
 412:../stm32_lib/src/stm32f10x_sdio.c **** {
 599              		.loc 1 412 0
 600              		.cfi_startproc
 601              		@ args = 0, pretend = 0, frame = 16
 602              		@ frame_needed = 1, uses_anonymous_args = 0
 603              		@ link register save eliminated.
 604 02e8 80B4     		push	{r7}
 605              	.LCFI30:
 606              		.cfi_def_cfa_offset 4
 607              		.cfi_offset 7, -4
 608 02ea 85B0     		sub	sp, sp, #20
 609              	.LCFI31:
 610              		.cfi_def_cfa_offset 24
 611 02ec 00AF     		add	r7, sp, #0
 612              	.LCFI32:
 613              		.cfi_def_cfa_register 7
 614 02ee 7860     		str	r0, [r7, #4]
 413:../stm32_lib/src/stm32f10x_sdio.c ****   __IO uint32_t tmp = 0;
 615              		.loc 1 413 0
 616 02f0 4FF00003 		mov	r3, #0
 617 02f4 FB60     		str	r3, [r7, #12]
 414:../stm32_lib/src/stm32f10x_sdio.c **** 
 415:../stm32_lib/src/stm32f10x_sdio.c ****   /* Check the parameters */
 416:../stm32_lib/src/stm32f10x_sdio.c ****   assert_param(IS_SDIO_RESP(SDIO_RESP));
 417:../stm32_lib/src/stm32f10x_sdio.c **** 
 418:../stm32_lib/src/stm32f10x_sdio.c ****   tmp = SDIO_RESP_ADDR + SDIO_RESP;
 618              		.loc 1 418 0
 619 02f6 7A68     		ldr	r2, [r7, #4]
 620 02f8 48F21403 		movw	r3, #32788
 621 02fc C4F20103 		movt	r3, 16385
 622 0300 D318     		adds	r3, r2, r3
 623 0302 FB60     		str	r3, [r7, #12]
 419:../stm32_lib/src/stm32f10x_sdio.c ****   
 420:../stm32_lib/src/stm32f10x_sdio.c ****   return (*(__IO uint32_t *) tmp); 
 624              		.loc 1 420 0
 625 0304 FB68     		ldr	r3, [r7, #12]
 626 0306 1B68     		ldr	r3, [r3, #0]
 421:../stm32_lib/src/stm32f10x_sdio.c **** }
 627              		.loc 1 421 0
 628 0308 1846     		mov	r0, r3
 629 030a 07F11407 		add	r7, r7, #20
 630 030e BD46     		mov	sp, r7
 631 0310 80BC     		pop	{r7}
 632 0312 7047     		bx	lr
 633              		.cfi_endproc
 634              	.LFE40:
 636              		.align	2
 637              		.global	SDIO_DataConfig
 638              		.thumb
 639              		.thumb_func
 641              	SDIO_DataConfig:
 642              	.LFB41:
 422:../stm32_lib/src/stm32f10x_sdio.c **** 
 423:../stm32_lib/src/stm32f10x_sdio.c **** /**
 424:../stm32_lib/src/stm32f10x_sdio.c ****   * @brief  Initializes the SDIO data path according to the specified 
 425:../stm32_lib/src/stm32f10x_sdio.c ****   *   parameters in the SDIO_DataInitStruct.
 426:../stm32_lib/src/stm32f10x_sdio.c ****   * @param  SDIO_DataInitStruct : pointer to a SDIO_DataInitTypeDef structure that
 427:../stm32_lib/src/stm32f10x_sdio.c ****   *   contains the configuration information for the SDIO command.
 428:../stm32_lib/src/stm32f10x_sdio.c ****   * @retval None
 429:../stm32_lib/src/stm32f10x_sdio.c ****   */
 430:../stm32_lib/src/stm32f10x_sdio.c **** void SDIO_DataConfig(SDIO_DataInitTypeDef* SDIO_DataInitStruct)
 431:../stm32_lib/src/stm32f10x_sdio.c **** {
 643              		.loc 1 431 0
 644              		.cfi_startproc
 645              		@ args = 0, pretend = 0, frame = 16
 646              		@ frame_needed = 1, uses_anonymous_args = 0
 647              		@ link register save eliminated.
 648 0314 80B4     		push	{r7}
 649              	.LCFI33:
 650              		.cfi_def_cfa_offset 4
 651              		.cfi_offset 7, -4
 652 0316 85B0     		sub	sp, sp, #20
 653              	.LCFI34:
 654              		.cfi_def_cfa_offset 24
 655 0318 00AF     		add	r7, sp, #0
 656              	.LCFI35:
 657              		.cfi_def_cfa_register 7
 658 031a 7860     		str	r0, [r7, #4]
 432:../stm32_lib/src/stm32f10x_sdio.c ****   uint32_t tmpreg = 0;
 659              		.loc 1 432 0
 660 031c 4FF00003 		mov	r3, #0
 661 0320 FB60     		str	r3, [r7, #12]
 433:../stm32_lib/src/stm32f10x_sdio.c ****   
 434:../stm32_lib/src/stm32f10x_sdio.c ****   /* Check the parameters */
 435:../stm32_lib/src/stm32f10x_sdio.c ****   assert_param(IS_SDIO_DATA_LENGTH(SDIO_DataInitStruct->SDIO_DataLength));
 436:../stm32_lib/src/stm32f10x_sdio.c ****   assert_param(IS_SDIO_BLOCK_SIZE(SDIO_DataInitStruct->SDIO_DataBlockSize));
 437:../stm32_lib/src/stm32f10x_sdio.c ****   assert_param(IS_SDIO_TRANSFER_DIR(SDIO_DataInitStruct->SDIO_TransferDir));
 438:../stm32_lib/src/stm32f10x_sdio.c ****   assert_param(IS_SDIO_TRANSFER_MODE(SDIO_DataInitStruct->SDIO_TransferMode));
 439:../stm32_lib/src/stm32f10x_sdio.c ****   assert_param(IS_SDIO_DPSM(SDIO_DataInitStruct->SDIO_DPSM));
 440:../stm32_lib/src/stm32f10x_sdio.c **** 
 441:../stm32_lib/src/stm32f10x_sdio.c **** /*---------------------------- SDIO DTIMER Configuration ---------------------*/
 442:../stm32_lib/src/stm32f10x_sdio.c ****   /* Set the SDIO Data TimeOut value */
 443:../stm32_lib/src/stm32f10x_sdio.c ****   SDIO->DTIMER = SDIO_DataInitStruct->SDIO_DataTimeOut;
 662              		.loc 1 443 0
 663 0322 4FF40043 		mov	r3, #32768
 664 0326 C4F20103 		movt	r3, 16385
 665 032a 7A68     		ldr	r2, [r7, #4]
 666 032c 1268     		ldr	r2, [r2, #0]
 667 032e 5A62     		str	r2, [r3, #36]
 444:../stm32_lib/src/stm32f10x_sdio.c **** 
 445:../stm32_lib/src/stm32f10x_sdio.c **** /*---------------------------- SDIO DLEN Configuration -----------------------*/
 446:../stm32_lib/src/stm32f10x_sdio.c ****   /* Set the SDIO DataLength value */
 447:../stm32_lib/src/stm32f10x_sdio.c ****   SDIO->DLEN = SDIO_DataInitStruct->SDIO_DataLength;
 668              		.loc 1 447 0
 669 0330 4FF40043 		mov	r3, #32768
 670 0334 C4F20103 		movt	r3, 16385
 671 0338 7A68     		ldr	r2, [r7, #4]
 672 033a 5268     		ldr	r2, [r2, #4]
 673 033c 9A62     		str	r2, [r3, #40]
 448:../stm32_lib/src/stm32f10x_sdio.c **** 
 449:../stm32_lib/src/stm32f10x_sdio.c **** /*---------------------------- SDIO DCTRL Configuration ----------------------*/  
 450:../stm32_lib/src/stm32f10x_sdio.c ****   /* Get the SDIO DCTRL value */
 451:../stm32_lib/src/stm32f10x_sdio.c ****   tmpreg = SDIO->DCTRL;
 674              		.loc 1 451 0
 675 033e 4FF40043 		mov	r3, #32768
 676 0342 C4F20103 		movt	r3, 16385
 677 0346 DB6A     		ldr	r3, [r3, #44]
 678 0348 FB60     		str	r3, [r7, #12]
 452:../stm32_lib/src/stm32f10x_sdio.c ****   /* Clear DEN, DTMODE, DTDIR and DBCKSIZE bits */
 453:../stm32_lib/src/stm32f10x_sdio.c ****   tmpreg &= DCTRL_CLEAR_MASK;
 679              		.loc 1 453 0
 680 034a FB68     		ldr	r3, [r7, #12]
 681 034c 23F0F703 		bic	r3, r3, #247
 682 0350 FB60     		str	r3, [r7, #12]
 454:../stm32_lib/src/stm32f10x_sdio.c ****   /* Set DEN bit according to SDIO_DPSM value */
 455:../stm32_lib/src/stm32f10x_sdio.c ****   /* Set DTMODE bit according to SDIO_TransferMode value */
 456:../stm32_lib/src/stm32f10x_sdio.c ****   /* Set DTDIR bit according to SDIO_TransferDir value */
 457:../stm32_lib/src/stm32f10x_sdio.c ****   /* Set DBCKSIZE bits according to SDIO_DataBlockSize value */
 458:../stm32_lib/src/stm32f10x_sdio.c ****   tmpreg |= (uint32_t)SDIO_DataInitStruct->SDIO_DataBlockSize | SDIO_DataInitStruct->SDIO_TransferD
 683              		.loc 1 458 0
 684 0352 7B68     		ldr	r3, [r7, #4]
 685 0354 9A68     		ldr	r2, [r3, #8]
 686 0356 7B68     		ldr	r3, [r7, #4]
 687 0358 DB68     		ldr	r3, [r3, #12]
 688 035a 1A43     		orrs	r2, r2, r3
 459:../stm32_lib/src/stm32f10x_sdio.c ****            | SDIO_DataInitStruct->SDIO_TransferMode | SDIO_DataInitStruct->SDIO_DPSM;
 689              		.loc 1 459 0
 690 035c 7B68     		ldr	r3, [r7, #4]
 691 035e 1B69     		ldr	r3, [r3, #16]
 692 0360 1A43     		orrs	r2, r2, r3
 693 0362 7B68     		ldr	r3, [r7, #4]
 694 0364 5B69     		ldr	r3, [r3, #20]
 695 0366 1343     		orrs	r3, r3, r2
 458:../stm32_lib/src/stm32f10x_sdio.c ****   tmpreg |= (uint32_t)SDIO_DataInitStruct->SDIO_DataBlockSize | SDIO_DataInitStruct->SDIO_TransferD
 696              		.loc 1 458 0
 697 0368 FA68     		ldr	r2, [r7, #12]
 698 036a 1343     		orrs	r3, r3, r2
 699 036c FB60     		str	r3, [r7, #12]
 460:../stm32_lib/src/stm32f10x_sdio.c **** 
 461:../stm32_lib/src/stm32f10x_sdio.c ****   /* Write to SDIO DCTRL */
 462:../stm32_lib/src/stm32f10x_sdio.c ****   SDIO->DCTRL = tmpreg;
 700              		.loc 1 462 0
 701 036e 4FF40043 		mov	r3, #32768
 702 0372 C4F20103 		movt	r3, 16385
 703 0376 FA68     		ldr	r2, [r7, #12]
 704 0378 DA62     		str	r2, [r3, #44]
 463:../stm32_lib/src/stm32f10x_sdio.c **** }
 705              		.loc 1 463 0
 706 037a 07F11407 		add	r7, r7, #20
 707 037e BD46     		mov	sp, r7
 708 0380 80BC     		pop	{r7}
 709 0382 7047     		bx	lr
 710              		.cfi_endproc
 711              	.LFE41:
 713              		.align	2
 714              		.global	SDIO_DataStructInit
 715              		.thumb
 716              		.thumb_func
 718              	SDIO_DataStructInit:
 719              	.LFB42:
 464:../stm32_lib/src/stm32f10x_sdio.c **** 
 465:../stm32_lib/src/stm32f10x_sdio.c **** /**
 466:../stm32_lib/src/stm32f10x_sdio.c ****   * @brief  Fills each SDIO_DataInitStruct member with its default value.
 467:../stm32_lib/src/stm32f10x_sdio.c ****   * @param  SDIO_DataInitStruct: pointer to an SDIO_DataInitTypeDef structure which
 468:../stm32_lib/src/stm32f10x_sdio.c ****   *   will be initialized.
 469:../stm32_lib/src/stm32f10x_sdio.c ****   * @retval None
 470:../stm32_lib/src/stm32f10x_sdio.c ****   */
 471:../stm32_lib/src/stm32f10x_sdio.c **** void SDIO_DataStructInit(SDIO_DataInitTypeDef* SDIO_DataInitStruct)
 472:../stm32_lib/src/stm32f10x_sdio.c **** {
 720              		.loc 1 472 0
 721              		.cfi_startproc
 722              		@ args = 0, pretend = 0, frame = 8
 723              		@ frame_needed = 1, uses_anonymous_args = 0
 724              		@ link register save eliminated.
 725 0384 80B4     		push	{r7}
 726              	.LCFI36:
 727              		.cfi_def_cfa_offset 4
 728              		.cfi_offset 7, -4
 729 0386 83B0     		sub	sp, sp, #12
 730              	.LCFI37:
 731              		.cfi_def_cfa_offset 16
 732 0388 00AF     		add	r7, sp, #0
 733              	.LCFI38:
 734              		.cfi_def_cfa_register 7
 735 038a 7860     		str	r0, [r7, #4]
 473:../stm32_lib/src/stm32f10x_sdio.c ****   /* SDIO_DataInitStruct members default value */
 474:../stm32_lib/src/stm32f10x_sdio.c ****   SDIO_DataInitStruct->SDIO_DataTimeOut = 0xFFFFFFFF;
 736              		.loc 1 474 0
 737 038c 7B68     		ldr	r3, [r7, #4]
 738 038e 4FF0FF32 		mov	r2, #-1
 739 0392 1A60     		str	r2, [r3, #0]
 475:../stm32_lib/src/stm32f10x_sdio.c ****   SDIO_DataInitStruct->SDIO_DataLength = 0x00;
 740              		.loc 1 475 0
 741 0394 7B68     		ldr	r3, [r7, #4]
 742 0396 4FF00002 		mov	r2, #0
 743 039a 5A60     		str	r2, [r3, #4]
 476:../stm32_lib/src/stm32f10x_sdio.c ****   SDIO_DataInitStruct->SDIO_DataBlockSize = SDIO_DataBlockSize_1b;
 744              		.loc 1 476 0
 745 039c 7B68     		ldr	r3, [r7, #4]
 746 039e 4FF00002 		mov	r2, #0
 747 03a2 9A60     		str	r2, [r3, #8]
 477:../stm32_lib/src/stm32f10x_sdio.c ****   SDIO_DataInitStruct->SDIO_TransferDir = SDIO_TransferDir_ToCard;
 748              		.loc 1 477 0
 749 03a4 7B68     		ldr	r3, [r7, #4]
 750 03a6 4FF00002 		mov	r2, #0
 751 03aa DA60     		str	r2, [r3, #12]
 478:../stm32_lib/src/stm32f10x_sdio.c ****   SDIO_DataInitStruct->SDIO_TransferMode = SDIO_TransferMode_Block;  
 752              		.loc 1 478 0
 753 03ac 7B68     		ldr	r3, [r7, #4]
 754 03ae 4FF00002 		mov	r2, #0
 755 03b2 1A61     		str	r2, [r3, #16]
 479:../stm32_lib/src/stm32f10x_sdio.c ****   SDIO_DataInitStruct->SDIO_DPSM = SDIO_DPSM_Disable;
 756              		.loc 1 479 0
 757 03b4 7B68     		ldr	r3, [r7, #4]
 758 03b6 4FF00002 		mov	r2, #0
 759 03ba 5A61     		str	r2, [r3, #20]
 480:../stm32_lib/src/stm32f10x_sdio.c **** }
 760              		.loc 1 480 0
 761 03bc 07F10C07 		add	r7, r7, #12
 762 03c0 BD46     		mov	sp, r7
 763 03c2 80BC     		pop	{r7}
 764 03c4 7047     		bx	lr
 765              		.cfi_endproc
 766              	.LFE42:
 768 03c6 00BF     		.align	2
 769              		.global	SDIO_GetDataCounter
 770              		.thumb
 771              		.thumb_func
 773              	SDIO_GetDataCounter:
 774              	.LFB43:
 481:../stm32_lib/src/stm32f10x_sdio.c **** 
 482:../stm32_lib/src/stm32f10x_sdio.c **** /**
 483:../stm32_lib/src/stm32f10x_sdio.c ****   * @brief  Returns number of remaining data bytes to be transferred.
 484:../stm32_lib/src/stm32f10x_sdio.c ****   * @param  None
 485:../stm32_lib/src/stm32f10x_sdio.c ****   * @retval Number of remaining data bytes to be transferred
 486:../stm32_lib/src/stm32f10x_sdio.c ****   */
 487:../stm32_lib/src/stm32f10x_sdio.c **** uint32_t SDIO_GetDataCounter(void)
 488:../stm32_lib/src/stm32f10x_sdio.c **** { 
 775              		.loc 1 488 0
 776              		.cfi_startproc
 777              		@ args = 0, pretend = 0, frame = 0
 778              		@ frame_needed = 1, uses_anonymous_args = 0
 779              		@ link register save eliminated.
 780 03c8 80B4     		push	{r7}
 781              	.LCFI39:
 782              		.cfi_def_cfa_offset 4
 783              		.cfi_offset 7, -4
 784 03ca 00AF     		add	r7, sp, #0
 785              	.LCFI40:
 786              		.cfi_def_cfa_register 7
 489:../stm32_lib/src/stm32f10x_sdio.c ****   return SDIO->DCOUNT;
 787              		.loc 1 489 0
 788 03cc 4FF40043 		mov	r3, #32768
 789 03d0 C4F20103 		movt	r3, 16385
 790 03d4 1B6B     		ldr	r3, [r3, #48]
 490:../stm32_lib/src/stm32f10x_sdio.c **** }
 791              		.loc 1 490 0
 792 03d6 1846     		mov	r0, r3
 793 03d8 BD46     		mov	sp, r7
 794 03da 80BC     		pop	{r7}
 795 03dc 7047     		bx	lr
 796              		.cfi_endproc
 797              	.LFE43:
 799 03de 00BF     		.align	2
 800              		.global	SDIO_ReadData
 801              		.thumb
 802              		.thumb_func
 804              	SDIO_ReadData:
 805              	.LFB44:
 491:../stm32_lib/src/stm32f10x_sdio.c **** 
 492:../stm32_lib/src/stm32f10x_sdio.c **** /**
 493:../stm32_lib/src/stm32f10x_sdio.c ****   * @brief  Read one data word from Rx FIFO.
 494:../stm32_lib/src/stm32f10x_sdio.c ****   * @param  None
 495:../stm32_lib/src/stm32f10x_sdio.c ****   * @retval Data received
 496:../stm32_lib/src/stm32f10x_sdio.c ****   */
 497:../stm32_lib/src/stm32f10x_sdio.c **** uint32_t SDIO_ReadData(void)
 498:../stm32_lib/src/stm32f10x_sdio.c **** { 
 806              		.loc 1 498 0
 807              		.cfi_startproc
 808              		@ args = 0, pretend = 0, frame = 0
 809              		@ frame_needed = 1, uses_anonymous_args = 0
 810              		@ link register save eliminated.
 811 03e0 80B4     		push	{r7}
 812              	.LCFI41:
 813              		.cfi_def_cfa_offset 4
 814              		.cfi_offset 7, -4
 815 03e2 00AF     		add	r7, sp, #0
 816              	.LCFI42:
 817              		.cfi_def_cfa_register 7
 499:../stm32_lib/src/stm32f10x_sdio.c ****   return SDIO->FIFO;
 818              		.loc 1 499 0
 819 03e4 4FF40043 		mov	r3, #32768
 820 03e8 C4F20103 		movt	r3, 16385
 821 03ec D3F88030 		ldr	r3, [r3, #128]
 500:../stm32_lib/src/stm32f10x_sdio.c **** }
 822              		.loc 1 500 0
 823 03f0 1846     		mov	r0, r3
 824 03f2 BD46     		mov	sp, r7
 825 03f4 80BC     		pop	{r7}
 826 03f6 7047     		bx	lr
 827              		.cfi_endproc
 828              	.LFE44:
 830              		.align	2
 831              		.global	SDIO_WriteData
 832              		.thumb
 833              		.thumb_func
 835              	SDIO_WriteData:
 836              	.LFB45:
 501:../stm32_lib/src/stm32f10x_sdio.c **** 
 502:../stm32_lib/src/stm32f10x_sdio.c **** /**
 503:../stm32_lib/src/stm32f10x_sdio.c ****   * @brief  Write one data word to Tx FIFO.
 504:../stm32_lib/src/stm32f10x_sdio.c ****   * @param  Data: 32-bit data word to write.
 505:../stm32_lib/src/stm32f10x_sdio.c ****   * @retval None
 506:../stm32_lib/src/stm32f10x_sdio.c ****   */
 507:../stm32_lib/src/stm32f10x_sdio.c **** void SDIO_WriteData(uint32_t Data)
 508:../stm32_lib/src/stm32f10x_sdio.c **** { 
 837              		.loc 1 508 0
 838              		.cfi_startproc
 839              		@ args = 0, pretend = 0, frame = 8
 840              		@ frame_needed = 1, uses_anonymous_args = 0
 841              		@ link register save eliminated.
 842 03f8 80B4     		push	{r7}
 843              	.LCFI43:
 844              		.cfi_def_cfa_offset 4
 845              		.cfi_offset 7, -4
 846 03fa 83B0     		sub	sp, sp, #12
 847              	.LCFI44:
 848              		.cfi_def_cfa_offset 16
 849 03fc 00AF     		add	r7, sp, #0
 850              	.LCFI45:
 851              		.cfi_def_cfa_register 7
 852 03fe 7860     		str	r0, [r7, #4]
 509:../stm32_lib/src/stm32f10x_sdio.c ****   SDIO->FIFO = Data;
 853              		.loc 1 509 0
 854 0400 4FF40043 		mov	r3, #32768
 855 0404 C4F20103 		movt	r3, 16385
 856 0408 7A68     		ldr	r2, [r7, #4]
 857 040a C3F88020 		str	r2, [r3, #128]
 510:../stm32_lib/src/stm32f10x_sdio.c **** }
 858              		.loc 1 510 0
 859 040e 07F10C07 		add	r7, r7, #12
 860 0412 BD46     		mov	sp, r7
 861 0414 80BC     		pop	{r7}
 862 0416 7047     		bx	lr
 863              		.cfi_endproc
 864              	.LFE45:
 866              		.align	2
 867              		.global	SDIO_GetFIFOCount
 868              		.thumb
 869              		.thumb_func
 871              	SDIO_GetFIFOCount:
 872              	.LFB46:
 511:../stm32_lib/src/stm32f10x_sdio.c **** 
 512:../stm32_lib/src/stm32f10x_sdio.c **** /**
 513:../stm32_lib/src/stm32f10x_sdio.c ****   * @brief  Returns the number of words left to be written to or read from FIFO.	
 514:../stm32_lib/src/stm32f10x_sdio.c ****   * @param  None
 515:../stm32_lib/src/stm32f10x_sdio.c ****   * @retval Remaining number of words.
 516:../stm32_lib/src/stm32f10x_sdio.c ****   */
 517:../stm32_lib/src/stm32f10x_sdio.c **** uint32_t SDIO_GetFIFOCount(void)
 518:../stm32_lib/src/stm32f10x_sdio.c **** { 
 873              		.loc 1 518 0
 874              		.cfi_startproc
 875              		@ args = 0, pretend = 0, frame = 0
 876              		@ frame_needed = 1, uses_anonymous_args = 0
 877              		@ link register save eliminated.
 878 0418 80B4     		push	{r7}
 879              	.LCFI46:
 880              		.cfi_def_cfa_offset 4
 881              		.cfi_offset 7, -4
 882 041a 00AF     		add	r7, sp, #0
 883              	.LCFI47:
 884              		.cfi_def_cfa_register 7
 519:../stm32_lib/src/stm32f10x_sdio.c ****   return SDIO->FIFOCNT;
 885              		.loc 1 519 0
 886 041c 4FF40043 		mov	r3, #32768
 887 0420 C4F20103 		movt	r3, 16385
 888 0424 9B6C     		ldr	r3, [r3, #72]
 520:../stm32_lib/src/stm32f10x_sdio.c **** }
 889              		.loc 1 520 0
 890 0426 1846     		mov	r0, r3
 891 0428 BD46     		mov	sp, r7
 892 042a 80BC     		pop	{r7}
 893 042c 7047     		bx	lr
 894              		.cfi_endproc
 895              	.LFE46:
 897 042e 00BF     		.align	2
 898              		.global	SDIO_StartSDIOReadWait
 899              		.thumb
 900              		.thumb_func
 902              	SDIO_StartSDIOReadWait:
 903              	.LFB47:
 521:../stm32_lib/src/stm32f10x_sdio.c **** 
 522:../stm32_lib/src/stm32f10x_sdio.c **** /**
 523:../stm32_lib/src/stm32f10x_sdio.c ****   * @brief  Starts the SD I/O Read Wait operation.	
 524:../stm32_lib/src/stm32f10x_sdio.c ****   * @param  NewState: new state of the Start SDIO Read Wait operation. 
 525:../stm32_lib/src/stm32f10x_sdio.c ****   *   This parameter can be: ENABLE or DISABLE.
 526:../stm32_lib/src/stm32f10x_sdio.c ****   * @retval None
 527:../stm32_lib/src/stm32f10x_sdio.c ****   */
 528:../stm32_lib/src/stm32f10x_sdio.c **** void SDIO_StartSDIOReadWait(FunctionalState NewState)
 529:../stm32_lib/src/stm32f10x_sdio.c **** { 
 904              		.loc 1 529 0
 905              		.cfi_startproc
 906              		@ args = 0, pretend = 0, frame = 8
 907              		@ frame_needed = 1, uses_anonymous_args = 0
 908              		@ link register save eliminated.
 909 0430 80B4     		push	{r7}
 910              	.LCFI48:
 911              		.cfi_def_cfa_offset 4
 912              		.cfi_offset 7, -4
 913 0432 83B0     		sub	sp, sp, #12
 914              	.LCFI49:
 915              		.cfi_def_cfa_offset 16
 916 0434 00AF     		add	r7, sp, #0
 917              	.LCFI50:
 918              		.cfi_def_cfa_register 7
 919 0436 0346     		mov	r3, r0
 920 0438 FB71     		strb	r3, [r7, #7]
 530:../stm32_lib/src/stm32f10x_sdio.c ****   /* Check the parameters */
 531:../stm32_lib/src/stm32f10x_sdio.c ****   assert_param(IS_FUNCTIONAL_STATE(NewState));
 532:../stm32_lib/src/stm32f10x_sdio.c ****   
 533:../stm32_lib/src/stm32f10x_sdio.c ****   *(__IO uint32_t *) DCTRL_RWSTART_BB = (uint32_t) NewState;
 921              		.loc 1 533 0
 922 043a 4FF4B463 		mov	r3, #1440
 923 043e C4F23023 		movt	r3, 16944
 924 0442 FA79     		ldrb	r2, [r7, #7]	@ zero_extendqisi2
 925 0444 1A60     		str	r2, [r3, #0]
 534:../stm32_lib/src/stm32f10x_sdio.c **** }
 926              		.loc 1 534 0
 927 0446 07F10C07 		add	r7, r7, #12
 928 044a BD46     		mov	sp, r7
 929 044c 80BC     		pop	{r7}
 930 044e 7047     		bx	lr
 931              		.cfi_endproc
 932              	.LFE47:
 934              		.align	2
 935              		.global	SDIO_StopSDIOReadWait
 936              		.thumb
 937              		.thumb_func
 939              	SDIO_StopSDIOReadWait:
 940              	.LFB48:
 535:../stm32_lib/src/stm32f10x_sdio.c **** 
 536:../stm32_lib/src/stm32f10x_sdio.c **** /**
 537:../stm32_lib/src/stm32f10x_sdio.c ****   * @brief  Stops the SD I/O Read Wait operation.	
 538:../stm32_lib/src/stm32f10x_sdio.c ****   * @param  NewState: new state of the Stop SDIO Read Wait operation. 
 539:../stm32_lib/src/stm32f10x_sdio.c ****   *   This parameter can be: ENABLE or DISABLE.
 540:../stm32_lib/src/stm32f10x_sdio.c ****   * @retval None
 541:../stm32_lib/src/stm32f10x_sdio.c ****   */
 542:../stm32_lib/src/stm32f10x_sdio.c **** void SDIO_StopSDIOReadWait(FunctionalState NewState)
 543:../stm32_lib/src/stm32f10x_sdio.c **** { 
 941              		.loc 1 543 0
 942              		.cfi_startproc
 943              		@ args = 0, pretend = 0, frame = 8
 944              		@ frame_needed = 1, uses_anonymous_args = 0
 945              		@ link register save eliminated.
 946 0450 80B4     		push	{r7}
 947              	.LCFI51:
 948              		.cfi_def_cfa_offset 4
 949              		.cfi_offset 7, -4
 950 0452 83B0     		sub	sp, sp, #12
 951              	.LCFI52:
 952              		.cfi_def_cfa_offset 16
 953 0454 00AF     		add	r7, sp, #0
 954              	.LCFI53:
 955              		.cfi_def_cfa_register 7
 956 0456 0346     		mov	r3, r0
 957 0458 FB71     		strb	r3, [r7, #7]
 544:../stm32_lib/src/stm32f10x_sdio.c ****   /* Check the parameters */
 545:../stm32_lib/src/stm32f10x_sdio.c ****   assert_param(IS_FUNCTIONAL_STATE(NewState));
 546:../stm32_lib/src/stm32f10x_sdio.c ****   
 547:../stm32_lib/src/stm32f10x_sdio.c ****   *(__IO uint32_t *) DCTRL_RWSTOP_BB = (uint32_t) NewState;
 958              		.loc 1 547 0
 959 045a 40F2A453 		movw	r3, #1444
 960 045e C4F23023 		movt	r3, 16944
 961 0462 FA79     		ldrb	r2, [r7, #7]	@ zero_extendqisi2
 962 0464 1A60     		str	r2, [r3, #0]
 548:../stm32_lib/src/stm32f10x_sdio.c **** }
 963              		.loc 1 548 0
 964 0466 07F10C07 		add	r7, r7, #12
 965 046a BD46     		mov	sp, r7
 966 046c 80BC     		pop	{r7}
 967 046e 7047     		bx	lr
 968              		.cfi_endproc
 969              	.LFE48:
 971              		.align	2
 972              		.global	SDIO_SetSDIOReadWaitMode
 973              		.thumb
 974              		.thumb_func
 976              	SDIO_SetSDIOReadWaitMode:
 977              	.LFB49:
 549:../stm32_lib/src/stm32f10x_sdio.c **** 
 550:../stm32_lib/src/stm32f10x_sdio.c **** /**
 551:../stm32_lib/src/stm32f10x_sdio.c ****   * @brief  Sets one of the two options of inserting read wait interval.
 552:../stm32_lib/src/stm32f10x_sdio.c ****   * @param  SDIO_ReadWaitMode: SD I/O Read Wait operation mode.
 553:../stm32_lib/src/stm32f10x_sdio.c ****   *   This parametre can be:
 554:../stm32_lib/src/stm32f10x_sdio.c ****   *     @arg SDIO_ReadWaitMode_CLK: Read Wait control by stopping SDIOCLK
 555:../stm32_lib/src/stm32f10x_sdio.c ****   *     @arg SDIO_ReadWaitMode_DATA2: Read Wait control using SDIO_DATA2
 556:../stm32_lib/src/stm32f10x_sdio.c ****   * @retval None
 557:../stm32_lib/src/stm32f10x_sdio.c ****   */
 558:../stm32_lib/src/stm32f10x_sdio.c **** void SDIO_SetSDIOReadWaitMode(uint32_t SDIO_ReadWaitMode)
 559:../stm32_lib/src/stm32f10x_sdio.c **** {
 978              		.loc 1 559 0
 979              		.cfi_startproc
 980              		@ args = 0, pretend = 0, frame = 8
 981              		@ frame_needed = 1, uses_anonymous_args = 0
 982              		@ link register save eliminated.
 983 0470 80B4     		push	{r7}
 984              	.LCFI54:
 985              		.cfi_def_cfa_offset 4
 986              		.cfi_offset 7, -4
 987 0472 83B0     		sub	sp, sp, #12
 988              	.LCFI55:
 989              		.cfi_def_cfa_offset 16
 990 0474 00AF     		add	r7, sp, #0
 991              	.LCFI56:
 992              		.cfi_def_cfa_register 7
 993 0476 7860     		str	r0, [r7, #4]
 560:../stm32_lib/src/stm32f10x_sdio.c ****   /* Check the parameters */
 561:../stm32_lib/src/stm32f10x_sdio.c ****   assert_param(IS_SDIO_READWAIT_MODE(SDIO_ReadWaitMode));
 562:../stm32_lib/src/stm32f10x_sdio.c ****   
 563:../stm32_lib/src/stm32f10x_sdio.c ****   *(__IO uint32_t *) DCTRL_RWMOD_BB = SDIO_ReadWaitMode;
 994              		.loc 1 563 0
 995 0478 4FF4B563 		mov	r3, #1448
 996 047c C4F23023 		movt	r3, 16944
 997 0480 7A68     		ldr	r2, [r7, #4]
 998 0482 1A60     		str	r2, [r3, #0]
 564:../stm32_lib/src/stm32f10x_sdio.c **** }
 999              		.loc 1 564 0
 1000 0484 07F10C07 		add	r7, r7, #12
 1001 0488 BD46     		mov	sp, r7
 1002 048a 80BC     		pop	{r7}
 1003 048c 7047     		bx	lr
 1004              		.cfi_endproc
 1005              	.LFE49:
 1007 048e 00BF     		.align	2
 1008              		.global	SDIO_SetSDIOOperation
 1009              		.thumb
 1010              		.thumb_func
 1012              	SDIO_SetSDIOOperation:
 1013              	.LFB50:
 565:../stm32_lib/src/stm32f10x_sdio.c **** 
 566:../stm32_lib/src/stm32f10x_sdio.c **** /**
 567:../stm32_lib/src/stm32f10x_sdio.c ****   * @brief  Enables or disables the SD I/O Mode Operation.
 568:../stm32_lib/src/stm32f10x_sdio.c ****   * @param  NewState: new state of SDIO specific operation. 
 569:../stm32_lib/src/stm32f10x_sdio.c ****   *   This parameter can be: ENABLE or DISABLE.
 570:../stm32_lib/src/stm32f10x_sdio.c ****   * @retval None
 571:../stm32_lib/src/stm32f10x_sdio.c ****   */
 572:../stm32_lib/src/stm32f10x_sdio.c **** void SDIO_SetSDIOOperation(FunctionalState NewState)
 573:../stm32_lib/src/stm32f10x_sdio.c **** { 
 1014              		.loc 1 573 0
 1015              		.cfi_startproc
 1016              		@ args = 0, pretend = 0, frame = 8
 1017              		@ frame_needed = 1, uses_anonymous_args = 0
 1018              		@ link register save eliminated.
 1019 0490 80B4     		push	{r7}
 1020              	.LCFI57:
 1021              		.cfi_def_cfa_offset 4
 1022              		.cfi_offset 7, -4
 1023 0492 83B0     		sub	sp, sp, #12
 1024              	.LCFI58:
 1025              		.cfi_def_cfa_offset 16
 1026 0494 00AF     		add	r7, sp, #0
 1027              	.LCFI59:
 1028              		.cfi_def_cfa_register 7
 1029 0496 0346     		mov	r3, r0
 1030 0498 FB71     		strb	r3, [r7, #7]
 574:../stm32_lib/src/stm32f10x_sdio.c ****   /* Check the parameters */
 575:../stm32_lib/src/stm32f10x_sdio.c ****   assert_param(IS_FUNCTIONAL_STATE(NewState));
 576:../stm32_lib/src/stm32f10x_sdio.c ****   
 577:../stm32_lib/src/stm32f10x_sdio.c ****   *(__IO uint32_t *) DCTRL_SDIOEN_BB = (uint32_t)NewState;
 1031              		.loc 1 577 0
 1032 049a 40F2AC53 		movw	r3, #1452
 1033 049e C4F23023 		movt	r3, 16944
 1034 04a2 FA79     		ldrb	r2, [r7, #7]	@ zero_extendqisi2
 1035 04a4 1A60     		str	r2, [r3, #0]
 578:../stm32_lib/src/stm32f10x_sdio.c **** }
 1036              		.loc 1 578 0
 1037 04a6 07F10C07 		add	r7, r7, #12
 1038 04aa BD46     		mov	sp, r7
 1039 04ac 80BC     		pop	{r7}
 1040 04ae 7047     		bx	lr
 1041              		.cfi_endproc
 1042              	.LFE50:
 1044              		.align	2
 1045              		.global	SDIO_SendSDIOSuspendCmd
 1046              		.thumb
 1047              		.thumb_func
 1049              	SDIO_SendSDIOSuspendCmd:
 1050              	.LFB51:
 579:../stm32_lib/src/stm32f10x_sdio.c **** 
 580:../stm32_lib/src/stm32f10x_sdio.c **** /**
 581:../stm32_lib/src/stm32f10x_sdio.c ****   * @brief  Enables or disables the SD I/O Mode suspend command sending.
 582:../stm32_lib/src/stm32f10x_sdio.c ****   * @param  NewState: new state of the SD I/O Mode suspend command.
 583:../stm32_lib/src/stm32f10x_sdio.c ****   *   This parameter can be: ENABLE or DISABLE.
 584:../stm32_lib/src/stm32f10x_sdio.c ****   * @retval None
 585:../stm32_lib/src/stm32f10x_sdio.c ****   */
 586:../stm32_lib/src/stm32f10x_sdio.c **** void SDIO_SendSDIOSuspendCmd(FunctionalState NewState)
 587:../stm32_lib/src/stm32f10x_sdio.c **** { 
 1051              		.loc 1 587 0
 1052              		.cfi_startproc
 1053              		@ args = 0, pretend = 0, frame = 8
 1054              		@ frame_needed = 1, uses_anonymous_args = 0
 1055              		@ link register save eliminated.
 1056 04b0 80B4     		push	{r7}
 1057              	.LCFI60:
 1058              		.cfi_def_cfa_offset 4
 1059              		.cfi_offset 7, -4
 1060 04b2 83B0     		sub	sp, sp, #12
 1061              	.LCFI61:
 1062              		.cfi_def_cfa_offset 16
 1063 04b4 00AF     		add	r7, sp, #0
 1064              	.LCFI62:
 1065              		.cfi_def_cfa_register 7
 1066 04b6 0346     		mov	r3, r0
 1067 04b8 FB71     		strb	r3, [r7, #7]
 588:../stm32_lib/src/stm32f10x_sdio.c ****   /* Check the parameters */
 589:../stm32_lib/src/stm32f10x_sdio.c ****   assert_param(IS_FUNCTIONAL_STATE(NewState));
 590:../stm32_lib/src/stm32f10x_sdio.c ****   
 591:../stm32_lib/src/stm32f10x_sdio.c ****   *(__IO uint32_t *) CMD_SDIOSUSPEND_BB = (uint32_t)NewState;
 1068              		.loc 1 591 0
 1069 04ba 4FF4D673 		mov	r3, #428
 1070 04be C4F23023 		movt	r3, 16944
 1071 04c2 FA79     		ldrb	r2, [r7, #7]	@ zero_extendqisi2
 1072 04c4 1A60     		str	r2, [r3, #0]
 592:../stm32_lib/src/stm32f10x_sdio.c **** }
 1073              		.loc 1 592 0
 1074 04c6 07F10C07 		add	r7, r7, #12
 1075 04ca BD46     		mov	sp, r7
 1076 04cc 80BC     		pop	{r7}
 1077 04ce 7047     		bx	lr
 1078              		.cfi_endproc
 1079              	.LFE51:
 1081              		.align	2
 1082              		.global	SDIO_CommandCompletionCmd
 1083              		.thumb
 1084              		.thumb_func
 1086              	SDIO_CommandCompletionCmd:
 1087              	.LFB52:
 593:../stm32_lib/src/stm32f10x_sdio.c **** 
 594:../stm32_lib/src/stm32f10x_sdio.c **** /**
 595:../stm32_lib/src/stm32f10x_sdio.c ****   * @brief  Enables or disables the command completion signal.
 596:../stm32_lib/src/stm32f10x_sdio.c ****   * @param  NewState: new state of command completion signal. 
 597:../stm32_lib/src/stm32f10x_sdio.c ****   *   This parameter can be: ENABLE or DISABLE.
 598:../stm32_lib/src/stm32f10x_sdio.c ****   * @retval None
 599:../stm32_lib/src/stm32f10x_sdio.c ****   */
 600:../stm32_lib/src/stm32f10x_sdio.c **** void SDIO_CommandCompletionCmd(FunctionalState NewState)
 601:../stm32_lib/src/stm32f10x_sdio.c **** { 
 1088              		.loc 1 601 0
 1089              		.cfi_startproc
 1090              		@ args = 0, pretend = 0, frame = 8
 1091              		@ frame_needed = 1, uses_anonymous_args = 0
 1092              		@ link register save eliminated.
 1093 04d0 80B4     		push	{r7}
 1094              	.LCFI63:
 1095              		.cfi_def_cfa_offset 4
 1096              		.cfi_offset 7, -4
 1097 04d2 83B0     		sub	sp, sp, #12
 1098              	.LCFI64:
 1099              		.cfi_def_cfa_offset 16
 1100 04d4 00AF     		add	r7, sp, #0
 1101              	.LCFI65:
 1102              		.cfi_def_cfa_register 7
 1103 04d6 0346     		mov	r3, r0
 1104 04d8 FB71     		strb	r3, [r7, #7]
 602:../stm32_lib/src/stm32f10x_sdio.c ****   /* Check the parameters */
 603:../stm32_lib/src/stm32f10x_sdio.c ****   assert_param(IS_FUNCTIONAL_STATE(NewState));
 604:../stm32_lib/src/stm32f10x_sdio.c ****   
 605:../stm32_lib/src/stm32f10x_sdio.c ****   *(__IO uint32_t *) CMD_ENCMDCOMPL_BB = (uint32_t)NewState;
 1105              		.loc 1 605 0
 1106 04da 4FF4D873 		mov	r3, #432
 1107 04de C4F23023 		movt	r3, 16944
 1108 04e2 FA79     		ldrb	r2, [r7, #7]	@ zero_extendqisi2
 1109 04e4 1A60     		str	r2, [r3, #0]
 606:../stm32_lib/src/stm32f10x_sdio.c **** }
 1110              		.loc 1 606 0
 1111 04e6 07F10C07 		add	r7, r7, #12
 1112 04ea BD46     		mov	sp, r7
 1113 04ec 80BC     		pop	{r7}
 1114 04ee 7047     		bx	lr
 1115              		.cfi_endproc
 1116              	.LFE52:
 1118              		.align	2
 1119              		.global	SDIO_CEATAITCmd
 1120              		.thumb
 1121              		.thumb_func
 1123              	SDIO_CEATAITCmd:
 1124              	.LFB53:
 607:../stm32_lib/src/stm32f10x_sdio.c **** 
 608:../stm32_lib/src/stm32f10x_sdio.c **** /**
 609:../stm32_lib/src/stm32f10x_sdio.c ****   * @brief  Enables or disables the CE-ATA interrupt.
 610:../stm32_lib/src/stm32f10x_sdio.c ****   * @param  NewState: new state of CE-ATA interrupt. This parameter can be: ENABLE or DISABLE.
 611:../stm32_lib/src/stm32f10x_sdio.c ****   * @retval None
 612:../stm32_lib/src/stm32f10x_sdio.c ****   */
 613:../stm32_lib/src/stm32f10x_sdio.c **** void SDIO_CEATAITCmd(FunctionalState NewState)
 614:../stm32_lib/src/stm32f10x_sdio.c **** { 
 1125              		.loc 1 614 0
 1126              		.cfi_startproc
 1127              		@ args = 0, pretend = 0, frame = 8
 1128              		@ frame_needed = 1, uses_anonymous_args = 0
 1129              		@ link register save eliminated.
 1130 04f0 80B4     		push	{r7}
 1131              	.LCFI66:
 1132              		.cfi_def_cfa_offset 4
 1133              		.cfi_offset 7, -4
 1134 04f2 83B0     		sub	sp, sp, #12
 1135              	.LCFI67:
 1136              		.cfi_def_cfa_offset 16
 1137 04f4 00AF     		add	r7, sp, #0
 1138              	.LCFI68:
 1139              		.cfi_def_cfa_register 7
 1140 04f6 0346     		mov	r3, r0
 1141 04f8 FB71     		strb	r3, [r7, #7]
 615:../stm32_lib/src/stm32f10x_sdio.c ****   /* Check the parameters */
 616:../stm32_lib/src/stm32f10x_sdio.c ****   assert_param(IS_FUNCTIONAL_STATE(NewState));
 617:../stm32_lib/src/stm32f10x_sdio.c ****   
 618:../stm32_lib/src/stm32f10x_sdio.c ****   *(__IO uint32_t *) CMD_NIEN_BB = (uint32_t)((~((uint32_t)NewState)) & ((uint32_t)0x1));
 1142              		.loc 1 618 0
 1143 04fa 4FF4DA73 		mov	r3, #436
 1144 04fe C4F23023 		movt	r3, 16944
 1145 0502 FA79     		ldrb	r2, [r7, #7]	@ zero_extendqisi2
 1146 0504 02F00102 		and	r2, r2, #1
 1147 0508 002A     		cmp	r2, #0
 1148 050a 14BF     		ite	ne
 1149 050c 0022     		movne	r2, #0
 1150 050e 0122     		moveq	r2, #1
 1151 0510 1A60     		str	r2, [r3, #0]
 619:../stm32_lib/src/stm32f10x_sdio.c **** }
 1152              		.loc 1 619 0
 1153 0512 07F10C07 		add	r7, r7, #12
 1154 0516 BD46     		mov	sp, r7
 1155 0518 80BC     		pop	{r7}
 1156 051a 7047     		bx	lr
 1157              		.cfi_endproc
 1158              	.LFE53:
 1160              		.align	2
 1161              		.global	SDIO_SendCEATACmd
 1162              		.thumb
 1163              		.thumb_func
 1165              	SDIO_SendCEATACmd:
 1166              	.LFB54:
 620:../stm32_lib/src/stm32f10x_sdio.c **** 
 621:../stm32_lib/src/stm32f10x_sdio.c **** /**
 622:../stm32_lib/src/stm32f10x_sdio.c ****   * @brief  Sends CE-ATA command (CMD61).
 623:../stm32_lib/src/stm32f10x_sdio.c ****   * @param  NewState: new state of CE-ATA command. This parameter can be: ENABLE or DISABLE.
 624:../stm32_lib/src/stm32f10x_sdio.c ****   * @retval None
 625:../stm32_lib/src/stm32f10x_sdio.c ****   */
 626:../stm32_lib/src/stm32f10x_sdio.c **** void SDIO_SendCEATACmd(FunctionalState NewState)
 627:../stm32_lib/src/stm32f10x_sdio.c **** { 
 1167              		.loc 1 627 0
 1168              		.cfi_startproc
 1169              		@ args = 0, pretend = 0, frame = 8
 1170              		@ frame_needed = 1, uses_anonymous_args = 0
 1171              		@ link register save eliminated.
 1172 051c 80B4     		push	{r7}
 1173              	.LCFI69:
 1174              		.cfi_def_cfa_offset 4
 1175              		.cfi_offset 7, -4
 1176 051e 83B0     		sub	sp, sp, #12
 1177              	.LCFI70:
 1178              		.cfi_def_cfa_offset 16
 1179 0520 00AF     		add	r7, sp, #0
 1180              	.LCFI71:
 1181              		.cfi_def_cfa_register 7
 1182 0522 0346     		mov	r3, r0
 1183 0524 FB71     		strb	r3, [r7, #7]
 628:../stm32_lib/src/stm32f10x_sdio.c ****   /* Check the parameters */
 629:../stm32_lib/src/stm32f10x_sdio.c ****   assert_param(IS_FUNCTIONAL_STATE(NewState));
 630:../stm32_lib/src/stm32f10x_sdio.c ****   
 631:../stm32_lib/src/stm32f10x_sdio.c ****   *(__IO uint32_t *) CMD_ATACMD_BB = (uint32_t)NewState;
 1184              		.loc 1 631 0
 1185 0526 4FF4DC73 		mov	r3, #440
 1186 052a C4F23023 		movt	r3, 16944
 1187 052e FA79     		ldrb	r2, [r7, #7]	@ zero_extendqisi2
 1188 0530 1A60     		str	r2, [r3, #0]
 632:../stm32_lib/src/stm32f10x_sdio.c **** }
 1189              		.loc 1 632 0
 1190 0532 07F10C07 		add	r7, r7, #12
 1191 0536 BD46     		mov	sp, r7
 1192 0538 80BC     		pop	{r7}
 1193 053a 7047     		bx	lr
 1194              		.cfi_endproc
 1195              	.LFE54:
 1197              		.align	2
 1198              		.global	SDIO_GetFlagStatus
 1199              		.thumb
 1200              		.thumb_func
 1202              	SDIO_GetFlagStatus:
 1203              	.LFB55:
 633:../stm32_lib/src/stm32f10x_sdio.c **** 
 634:../stm32_lib/src/stm32f10x_sdio.c **** /**
 635:../stm32_lib/src/stm32f10x_sdio.c ****   * @brief  Checks whether the specified SDIO flag is set or not.
 636:../stm32_lib/src/stm32f10x_sdio.c ****   * @param  SDIO_FLAG: specifies the flag to check. 
 637:../stm32_lib/src/stm32f10x_sdio.c ****   *   This parameter can be one of the following values:
 638:../stm32_lib/src/stm32f10x_sdio.c ****   *     @arg SDIO_FLAG_CCRCFAIL: Command response received (CRC check failed)
 639:../stm32_lib/src/stm32f10x_sdio.c ****   *     @arg SDIO_FLAG_DCRCFAIL: Data block sent/received (CRC check failed)
 640:../stm32_lib/src/stm32f10x_sdio.c ****   *     @arg SDIO_FLAG_CTIMEOUT: Command response timeout
 641:../stm32_lib/src/stm32f10x_sdio.c ****   *     @arg SDIO_FLAG_DTIMEOUT: Data timeout
 642:../stm32_lib/src/stm32f10x_sdio.c ****   *     @arg SDIO_FLAG_TXUNDERR: Transmit FIFO underrun error
 643:../stm32_lib/src/stm32f10x_sdio.c ****   *     @arg SDIO_FLAG_RXOVERR:  Received FIFO overrun error
 644:../stm32_lib/src/stm32f10x_sdio.c ****   *     @arg SDIO_FLAG_CMDREND:  Command response received (CRC check passed)
 645:../stm32_lib/src/stm32f10x_sdio.c ****   *     @arg SDIO_FLAG_CMDSENT:  Command sent (no response required)
 646:../stm32_lib/src/stm32f10x_sdio.c ****   *     @arg SDIO_FLAG_DATAEND:  Data end (data counter, SDIDCOUNT, is zero)
 647:../stm32_lib/src/stm32f10x_sdio.c ****   *     @arg SDIO_FLAG_STBITERR: Start bit not detected on all data signals in wide 
 648:../stm32_lib/src/stm32f10x_sdio.c ****   *                              bus mode.
 649:../stm32_lib/src/stm32f10x_sdio.c ****   *     @arg SDIO_FLAG_DBCKEND:  Data block sent/received (CRC check passed)
 650:../stm32_lib/src/stm32f10x_sdio.c ****   *     @arg SDIO_FLAG_CMDACT:   Command transfer in progress
 651:../stm32_lib/src/stm32f10x_sdio.c ****   *     @arg SDIO_FLAG_TXACT:    Data transmit in progress
 652:../stm32_lib/src/stm32f10x_sdio.c ****   *     @arg SDIO_FLAG_RXACT:    Data receive in progress
 653:../stm32_lib/src/stm32f10x_sdio.c ****   *     @arg SDIO_FLAG_TXFIFOHE: Transmit FIFO Half Empty
 654:../stm32_lib/src/stm32f10x_sdio.c ****   *     @arg SDIO_FLAG_RXFIFOHF: Receive FIFO Half Full
 655:../stm32_lib/src/stm32f10x_sdio.c ****   *     @arg SDIO_FLAG_TXFIFOF:  Transmit FIFO full
 656:../stm32_lib/src/stm32f10x_sdio.c ****   *     @arg SDIO_FLAG_RXFIFOF:  Receive FIFO full
 657:../stm32_lib/src/stm32f10x_sdio.c ****   *     @arg SDIO_FLAG_TXFIFOE:  Transmit FIFO empty
 658:../stm32_lib/src/stm32f10x_sdio.c ****   *     @arg SDIO_FLAG_RXFIFOE:  Receive FIFO empty
 659:../stm32_lib/src/stm32f10x_sdio.c ****   *     @arg SDIO_FLAG_TXDAVL:   Data available in transmit FIFO
 660:../stm32_lib/src/stm32f10x_sdio.c ****   *     @arg SDIO_FLAG_RXDAVL:   Data available in receive FIFO
 661:../stm32_lib/src/stm32f10x_sdio.c ****   *     @arg SDIO_FLAG_SDIOIT:   SD I/O interrupt received
 662:../stm32_lib/src/stm32f10x_sdio.c ****   *     @arg SDIO_FLAG_CEATAEND: CE-ATA command completion signal received for CMD61
 663:../stm32_lib/src/stm32f10x_sdio.c ****   * @retval The new state of SDIO_FLAG (SET or RESET).
 664:../stm32_lib/src/stm32f10x_sdio.c ****   */
 665:../stm32_lib/src/stm32f10x_sdio.c **** FlagStatus SDIO_GetFlagStatus(uint32_t SDIO_FLAG)
 666:../stm32_lib/src/stm32f10x_sdio.c **** { 
 1204              		.loc 1 666 0
 1205              		.cfi_startproc
 1206              		@ args = 0, pretend = 0, frame = 16
 1207              		@ frame_needed = 1, uses_anonymous_args = 0
 1208              		@ link register save eliminated.
 1209 053c 80B4     		push	{r7}
 1210              	.LCFI72:
 1211              		.cfi_def_cfa_offset 4
 1212              		.cfi_offset 7, -4
 1213 053e 85B0     		sub	sp, sp, #20
 1214              	.LCFI73:
 1215              		.cfi_def_cfa_offset 24
 1216 0540 00AF     		add	r7, sp, #0
 1217              	.LCFI74:
 1218              		.cfi_def_cfa_register 7
 1219 0542 7860     		str	r0, [r7, #4]
 667:../stm32_lib/src/stm32f10x_sdio.c ****   FlagStatus bitstatus = RESET;
 1220              		.loc 1 667 0
 1221 0544 4FF00003 		mov	r3, #0
 1222 0548 FB73     		strb	r3, [r7, #15]
 668:../stm32_lib/src/stm32f10x_sdio.c ****   
 669:../stm32_lib/src/stm32f10x_sdio.c ****   /* Check the parameters */
 670:../stm32_lib/src/stm32f10x_sdio.c ****   assert_param(IS_SDIO_FLAG(SDIO_FLAG));
 671:../stm32_lib/src/stm32f10x_sdio.c ****   
 672:../stm32_lib/src/stm32f10x_sdio.c ****   if ((SDIO->STA & SDIO_FLAG) != (uint32_t)RESET)
 1223              		.loc 1 672 0
 1224 054a 4FF40043 		mov	r3, #32768
 1225 054e C4F20103 		movt	r3, 16385
 1226 0552 5A6B     		ldr	r2, [r3, #52]
 1227 0554 7B68     		ldr	r3, [r7, #4]
 1228 0556 1340     		ands	r3, r3, r2
 1229 0558 002B     		cmp	r3, #0
 1230 055a 03D0     		beq	.L30
 673:../stm32_lib/src/stm32f10x_sdio.c ****   {
 674:../stm32_lib/src/stm32f10x_sdio.c ****     bitstatus = SET;
 1231              		.loc 1 674 0
 1232 055c 4FF00103 		mov	r3, #1
 1233 0560 FB73     		strb	r3, [r7, #15]
 1234 0562 02E0     		b	.L31
 1235              	.L30:
 675:../stm32_lib/src/stm32f10x_sdio.c ****   }
 676:../stm32_lib/src/stm32f10x_sdio.c ****   else
 677:../stm32_lib/src/stm32f10x_sdio.c ****   {
 678:../stm32_lib/src/stm32f10x_sdio.c ****     bitstatus = RESET;
 1236              		.loc 1 678 0
 1237 0564 4FF00003 		mov	r3, #0
 1238 0568 FB73     		strb	r3, [r7, #15]
 1239              	.L31:
 679:../stm32_lib/src/stm32f10x_sdio.c ****   }
 680:../stm32_lib/src/stm32f10x_sdio.c ****   return bitstatus;
 1240              		.loc 1 680 0
 1241 056a FB7B     		ldrb	r3, [r7, #15]	@ zero_extendqisi2
 681:../stm32_lib/src/stm32f10x_sdio.c **** }
 1242              		.loc 1 681 0
 1243 056c 1846     		mov	r0, r3
 1244 056e 07F11407 		add	r7, r7, #20
 1245 0572 BD46     		mov	sp, r7
 1246 0574 80BC     		pop	{r7}
 1247 0576 7047     		bx	lr
 1248              		.cfi_endproc
 1249              	.LFE55:
 1251              		.align	2
 1252              		.global	SDIO_ClearFlag
 1253              		.thumb
 1254              		.thumb_func
 1256              	SDIO_ClearFlag:
 1257              	.LFB56:
 682:../stm32_lib/src/stm32f10x_sdio.c **** 
 683:../stm32_lib/src/stm32f10x_sdio.c **** /**
 684:../stm32_lib/src/stm32f10x_sdio.c ****   * @brief  Clears the SDIO's pending flags.
 685:../stm32_lib/src/stm32f10x_sdio.c ****   * @param  SDIO_FLAG: specifies the flag to clear.  
 686:../stm32_lib/src/stm32f10x_sdio.c ****   *   This parameter can be one or a combination of the following values:
 687:../stm32_lib/src/stm32f10x_sdio.c ****   *     @arg SDIO_FLAG_CCRCFAIL: Command response received (CRC check failed)
 688:../stm32_lib/src/stm32f10x_sdio.c ****   *     @arg SDIO_FLAG_DCRCFAIL: Data block sent/received (CRC check failed)
 689:../stm32_lib/src/stm32f10x_sdio.c ****   *     @arg SDIO_FLAG_CTIMEOUT: Command response timeout
 690:../stm32_lib/src/stm32f10x_sdio.c ****   *     @arg SDIO_FLAG_DTIMEOUT: Data timeout
 691:../stm32_lib/src/stm32f10x_sdio.c ****   *     @arg SDIO_FLAG_TXUNDERR: Transmit FIFO underrun error
 692:../stm32_lib/src/stm32f10x_sdio.c ****   *     @arg SDIO_FLAG_RXOVERR:  Received FIFO overrun error
 693:../stm32_lib/src/stm32f10x_sdio.c ****   *     @arg SDIO_FLAG_CMDREND:  Command response received (CRC check passed)
 694:../stm32_lib/src/stm32f10x_sdio.c ****   *     @arg SDIO_FLAG_CMDSENT:  Command sent (no response required)
 695:../stm32_lib/src/stm32f10x_sdio.c ****   *     @arg SDIO_FLAG_DATAEND:  Data end (data counter, SDIDCOUNT, is zero)
 696:../stm32_lib/src/stm32f10x_sdio.c ****   *     @arg SDIO_FLAG_STBITERR: Start bit not detected on all data signals in wide 
 697:../stm32_lib/src/stm32f10x_sdio.c ****   *                              bus mode
 698:../stm32_lib/src/stm32f10x_sdio.c ****   *     @arg SDIO_FLAG_DBCKEND:  Data block sent/received (CRC check passed)
 699:../stm32_lib/src/stm32f10x_sdio.c ****   *     @arg SDIO_FLAG_SDIOIT:   SD I/O interrupt received
 700:../stm32_lib/src/stm32f10x_sdio.c ****   *     @arg SDIO_FLAG_CEATAEND: CE-ATA command completion signal received for CMD61
 701:../stm32_lib/src/stm32f10x_sdio.c ****   * @retval None
 702:../stm32_lib/src/stm32f10x_sdio.c ****   */
 703:../stm32_lib/src/stm32f10x_sdio.c **** void SDIO_ClearFlag(uint32_t SDIO_FLAG)
 704:../stm32_lib/src/stm32f10x_sdio.c **** { 
 1258              		.loc 1 704 0
 1259              		.cfi_startproc
 1260              		@ args = 0, pretend = 0, frame = 8
 1261              		@ frame_needed = 1, uses_anonymous_args = 0
 1262              		@ link register save eliminated.
 1263 0578 80B4     		push	{r7}
 1264              	.LCFI75:
 1265              		.cfi_def_cfa_offset 4
 1266              		.cfi_offset 7, -4
 1267 057a 83B0     		sub	sp, sp, #12
 1268              	.LCFI76:
 1269              		.cfi_def_cfa_offset 16
 1270 057c 00AF     		add	r7, sp, #0
 1271              	.LCFI77:
 1272              		.cfi_def_cfa_register 7
 1273 057e 7860     		str	r0, [r7, #4]
 705:../stm32_lib/src/stm32f10x_sdio.c ****   /* Check the parameters */
 706:../stm32_lib/src/stm32f10x_sdio.c ****   assert_param(IS_SDIO_CLEAR_FLAG(SDIO_FLAG));
 707:../stm32_lib/src/stm32f10x_sdio.c ****    
 708:../stm32_lib/src/stm32f10x_sdio.c ****   SDIO->ICR = SDIO_FLAG;
 1274              		.loc 1 708 0
 1275 0580 4FF40043 		mov	r3, #32768
 1276 0584 C4F20103 		movt	r3, 16385
 1277 0588 7A68     		ldr	r2, [r7, #4]
 1278 058a 9A63     		str	r2, [r3, #56]
 709:../stm32_lib/src/stm32f10x_sdio.c **** }
 1279              		.loc 1 709 0
 1280 058c 07F10C07 		add	r7, r7, #12
 1281 0590 BD46     		mov	sp, r7
 1282 0592 80BC     		pop	{r7}
 1283 0594 7047     		bx	lr
 1284              		.cfi_endproc
 1285              	.LFE56:
 1287 0596 00BF     		.align	2
 1288              		.global	SDIO_GetITStatus
 1289              		.thumb
 1290              		.thumb_func
 1292              	SDIO_GetITStatus:
 1293              	.LFB57:
 710:../stm32_lib/src/stm32f10x_sdio.c **** 
 711:../stm32_lib/src/stm32f10x_sdio.c **** /**
 712:../stm32_lib/src/stm32f10x_sdio.c ****   * @brief  Checks whether the specified SDIO interrupt has occurred or not.
 713:../stm32_lib/src/stm32f10x_sdio.c ****   * @param  SDIO_IT: specifies the SDIO interrupt source to check. 
 714:../stm32_lib/src/stm32f10x_sdio.c ****   *   This parameter can be one of the following values:
 715:../stm32_lib/src/stm32f10x_sdio.c ****   *     @arg SDIO_IT_CCRCFAIL: Command response received (CRC check failed) interrupt
 716:../stm32_lib/src/stm32f10x_sdio.c ****   *     @arg SDIO_IT_DCRCFAIL: Data block sent/received (CRC check failed) interrupt
 717:../stm32_lib/src/stm32f10x_sdio.c ****   *     @arg SDIO_IT_CTIMEOUT: Command response timeout interrupt
 718:../stm32_lib/src/stm32f10x_sdio.c ****   *     @arg SDIO_IT_DTIMEOUT: Data timeout interrupt
 719:../stm32_lib/src/stm32f10x_sdio.c ****   *     @arg SDIO_IT_TXUNDERR: Transmit FIFO underrun error interrupt
 720:../stm32_lib/src/stm32f10x_sdio.c ****   *     @arg SDIO_IT_RXOVERR:  Received FIFO overrun error interrupt
 721:../stm32_lib/src/stm32f10x_sdio.c ****   *     @arg SDIO_IT_CMDREND:  Command response received (CRC check passed) interrupt
 722:../stm32_lib/src/stm32f10x_sdio.c ****   *     @arg SDIO_IT_CMDSENT:  Command sent (no response required) interrupt
 723:../stm32_lib/src/stm32f10x_sdio.c ****   *     @arg SDIO_IT_DATAEND:  Data end (data counter, SDIDCOUNT, is zero) interrupt
 724:../stm32_lib/src/stm32f10x_sdio.c ****   *     @arg SDIO_IT_STBITERR: Start bit not detected on all data signals in wide 
 725:../stm32_lib/src/stm32f10x_sdio.c ****   *                            bus mode interrupt
 726:../stm32_lib/src/stm32f10x_sdio.c ****   *     @arg SDIO_IT_DBCKEND:  Data block sent/received (CRC check passed) interrupt
 727:../stm32_lib/src/stm32f10x_sdio.c ****   *     @arg SDIO_IT_CMDACT:   Command transfer in progress interrupt
 728:../stm32_lib/src/stm32f10x_sdio.c ****   *     @arg SDIO_IT_TXACT:    Data transmit in progress interrupt
 729:../stm32_lib/src/stm32f10x_sdio.c ****   *     @arg SDIO_IT_RXACT:    Data receive in progress interrupt
 730:../stm32_lib/src/stm32f10x_sdio.c ****   *     @arg SDIO_IT_TXFIFOHE: Transmit FIFO Half Empty interrupt
 731:../stm32_lib/src/stm32f10x_sdio.c ****   *     @arg SDIO_IT_RXFIFOHF: Receive FIFO Half Full interrupt
 732:../stm32_lib/src/stm32f10x_sdio.c ****   *     @arg SDIO_IT_TXFIFOF:  Transmit FIFO full interrupt
 733:../stm32_lib/src/stm32f10x_sdio.c ****   *     @arg SDIO_IT_RXFIFOF:  Receive FIFO full interrupt
 734:../stm32_lib/src/stm32f10x_sdio.c ****   *     @arg SDIO_IT_TXFIFOE:  Transmit FIFO empty interrupt
 735:../stm32_lib/src/stm32f10x_sdio.c ****   *     @arg SDIO_IT_RXFIFOE:  Receive FIFO empty interrupt
 736:../stm32_lib/src/stm32f10x_sdio.c ****   *     @arg SDIO_IT_TXDAVL:   Data available in transmit FIFO interrupt
 737:../stm32_lib/src/stm32f10x_sdio.c ****   *     @arg SDIO_IT_RXDAVL:   Data available in receive FIFO interrupt
 738:../stm32_lib/src/stm32f10x_sdio.c ****   *     @arg SDIO_IT_SDIOIT:   SD I/O interrupt received interrupt
 739:../stm32_lib/src/stm32f10x_sdio.c ****   *     @arg SDIO_IT_CEATAEND: CE-ATA command completion signal received for CMD61 interrupt
 740:../stm32_lib/src/stm32f10x_sdio.c ****   * @retval The new state of SDIO_IT (SET or RESET).
 741:../stm32_lib/src/stm32f10x_sdio.c ****   */
 742:../stm32_lib/src/stm32f10x_sdio.c **** ITStatus SDIO_GetITStatus(uint32_t SDIO_IT)
 743:../stm32_lib/src/stm32f10x_sdio.c **** { 
 1294              		.loc 1 743 0
 1295              		.cfi_startproc
 1296              		@ args = 0, pretend = 0, frame = 16
 1297              		@ frame_needed = 1, uses_anonymous_args = 0
 1298              		@ link register save eliminated.
 1299 0598 80B4     		push	{r7}
 1300              	.LCFI78:
 1301              		.cfi_def_cfa_offset 4
 1302              		.cfi_offset 7, -4
 1303 059a 85B0     		sub	sp, sp, #20
 1304              	.LCFI79:
 1305              		.cfi_def_cfa_offset 24
 1306 059c 00AF     		add	r7, sp, #0
 1307              	.LCFI80:
 1308              		.cfi_def_cfa_register 7
 1309 059e 7860     		str	r0, [r7, #4]
 744:../stm32_lib/src/stm32f10x_sdio.c ****   ITStatus bitstatus = RESET;
 1310              		.loc 1 744 0
 1311 05a0 4FF00003 		mov	r3, #0
 1312 05a4 FB73     		strb	r3, [r7, #15]
 745:../stm32_lib/src/stm32f10x_sdio.c ****   
 746:../stm32_lib/src/stm32f10x_sdio.c ****   /* Check the parameters */
 747:../stm32_lib/src/stm32f10x_sdio.c ****   assert_param(IS_SDIO_GET_IT(SDIO_IT));
 748:../stm32_lib/src/stm32f10x_sdio.c ****   if ((SDIO->STA & SDIO_IT) != (uint32_t)RESET)  
 1313              		.loc 1 748 0
 1314 05a6 4FF40043 		mov	r3, #32768
 1315 05aa C4F20103 		movt	r3, 16385
 1316 05ae 5A6B     		ldr	r2, [r3, #52]
 1317 05b0 7B68     		ldr	r3, [r7, #4]
 1318 05b2 1340     		ands	r3, r3, r2
 1319 05b4 002B     		cmp	r3, #0
 1320 05b6 03D0     		beq	.L34
 749:../stm32_lib/src/stm32f10x_sdio.c ****   {
 750:../stm32_lib/src/stm32f10x_sdio.c ****     bitstatus = SET;
 1321              		.loc 1 750 0
 1322 05b8 4FF00103 		mov	r3, #1
 1323 05bc FB73     		strb	r3, [r7, #15]
 1324 05be 02E0     		b	.L35
 1325              	.L34:
 751:../stm32_lib/src/stm32f10x_sdio.c ****   }
 752:../stm32_lib/src/stm32f10x_sdio.c ****   else
 753:../stm32_lib/src/stm32f10x_sdio.c ****   {
 754:../stm32_lib/src/stm32f10x_sdio.c ****     bitstatus = RESET;
 1326              		.loc 1 754 0
 1327 05c0 4FF00003 		mov	r3, #0
 1328 05c4 FB73     		strb	r3, [r7, #15]
 1329              	.L35:
 755:../stm32_lib/src/stm32f10x_sdio.c ****   }
 756:../stm32_lib/src/stm32f10x_sdio.c ****   return bitstatus;
 1330              		.loc 1 756 0
 1331 05c6 FB7B     		ldrb	r3, [r7, #15]	@ zero_extendqisi2
 757:../stm32_lib/src/stm32f10x_sdio.c **** }
 1332              		.loc 1 757 0
 1333 05c8 1846     		mov	r0, r3
 1334 05ca 07F11407 		add	r7, r7, #20
 1335 05ce BD46     		mov	sp, r7
 1336 05d0 80BC     		pop	{r7}
 1337 05d2 7047     		bx	lr
 1338              		.cfi_endproc
 1339              	.LFE57:
 1341              		.align	2
 1342              		.global	SDIO_ClearITPendingBit
 1343              		.thumb
 1344              		.thumb_func
 1346              	SDIO_ClearITPendingBit:
 1347              	.LFB58:
 758:../stm32_lib/src/stm32f10x_sdio.c **** 
 759:../stm32_lib/src/stm32f10x_sdio.c **** /**
 760:../stm32_lib/src/stm32f10x_sdio.c ****   * @brief  Clears the SDIOs interrupt pending bits.
 761:../stm32_lib/src/stm32f10x_sdio.c ****   * @param  SDIO_IT: specifies the interrupt pending bit to clear. 
 762:../stm32_lib/src/stm32f10x_sdio.c ****   *   This parameter can be one or a combination of the following values:
 763:../stm32_lib/src/stm32f10x_sdio.c ****   *     @arg SDIO_IT_CCRCFAIL: Command response received (CRC check failed) interrupt
 764:../stm32_lib/src/stm32f10x_sdio.c ****   *     @arg SDIO_IT_DCRCFAIL: Data block sent/received (CRC check failed) interrupt
 765:../stm32_lib/src/stm32f10x_sdio.c ****   *     @arg SDIO_IT_CTIMEOUT: Command response timeout interrupt
 766:../stm32_lib/src/stm32f10x_sdio.c ****   *     @arg SDIO_IT_DTIMEOUT: Data timeout interrupt
 767:../stm32_lib/src/stm32f10x_sdio.c ****   *     @arg SDIO_IT_TXUNDERR: Transmit FIFO underrun error interrupt
 768:../stm32_lib/src/stm32f10x_sdio.c ****   *     @arg SDIO_IT_RXOVERR:  Received FIFO overrun error interrupt
 769:../stm32_lib/src/stm32f10x_sdio.c ****   *     @arg SDIO_IT_CMDREND:  Command response received (CRC check passed) interrupt
 770:../stm32_lib/src/stm32f10x_sdio.c ****   *     @arg SDIO_IT_CMDSENT:  Command sent (no response required) interrupt
 771:../stm32_lib/src/stm32f10x_sdio.c ****   *     @arg SDIO_IT_DATAEND:  Data end (data counter, SDIDCOUNT, is zero) interrupt
 772:../stm32_lib/src/stm32f10x_sdio.c ****   *     @arg SDIO_IT_STBITERR: Start bit not detected on all data signals in wide 
 773:../stm32_lib/src/stm32f10x_sdio.c ****   *                            bus mode interrupt
 774:../stm32_lib/src/stm32f10x_sdio.c ****   *     @arg SDIO_IT_SDIOIT:   SD I/O interrupt received interrupt
 775:../stm32_lib/src/stm32f10x_sdio.c ****   *     @arg SDIO_IT_CEATAEND: CE-ATA command completion signal received for CMD61
 776:../stm32_lib/src/stm32f10x_sdio.c ****   * @retval None
 777:../stm32_lib/src/stm32f10x_sdio.c ****   */
 778:../stm32_lib/src/stm32f10x_sdio.c **** void SDIO_ClearITPendingBit(uint32_t SDIO_IT)
 779:../stm32_lib/src/stm32f10x_sdio.c **** { 
 1348              		.loc 1 779 0
 1349              		.cfi_startproc
 1350              		@ args = 0, pretend = 0, frame = 8
 1351              		@ frame_needed = 1, uses_anonymous_args = 0
 1352              		@ link register save eliminated.
 1353 05d4 80B4     		push	{r7}
 1354              	.LCFI81:
 1355              		.cfi_def_cfa_offset 4
 1356              		.cfi_offset 7, -4
 1357 05d6 83B0     		sub	sp, sp, #12
 1358              	.LCFI82:
 1359              		.cfi_def_cfa_offset 16
 1360 05d8 00AF     		add	r7, sp, #0
 1361              	.LCFI83:
 1362              		.cfi_def_cfa_register 7
 1363 05da 7860     		str	r0, [r7, #4]
 780:../stm32_lib/src/stm32f10x_sdio.c ****   /* Check the parameters */
 781:../stm32_lib/src/stm32f10x_sdio.c ****   assert_param(IS_SDIO_CLEAR_IT(SDIO_IT));
 782:../stm32_lib/src/stm32f10x_sdio.c ****    
 783:../stm32_lib/src/stm32f10x_sdio.c ****   SDIO->ICR = SDIO_IT;
 1364              		.loc 1 783 0
 1365 05dc 4FF40043 		mov	r3, #32768
 1366 05e0 C4F20103 		movt	r3, 16385
 1367 05e4 7A68     		ldr	r2, [r7, #4]
 1368 05e6 9A63     		str	r2, [r3, #56]
 784:../stm32_lib/src/stm32f10x_sdio.c **** }
 1369              		.loc 1 784 0
 1370 05e8 07F10C07 		add	r7, r7, #12
 1371 05ec BD46     		mov	sp, r7
 1372 05ee 80BC     		pop	{r7}
 1373 05f0 7047     		bx	lr
 1374              		.cfi_endproc
 1375              	.LFE58:
 1377              	.Letext0:
 1378              		.file 2 "/opt/CodeSourcery/arm-2011.09/bin/../lib/gcc/arm-none-eabi/4.6.1/../../../../arm-none-eab
 1379              		.file 3 "/home/simon/Workspace/stm32vl/stm32_lib/inc/stm32f10x.h"
 1380              		.file 4 "/home/simon/Workspace/stm32vl/stm32_lib/inc/stm32f10x_sdio.h"
 1381              		.file 5 "/home/simon/Workspace/stm32vl/stm32_lib/inc/core_cm3.h"