   1              		.syntax unified
   2              		.cpu cortex-m4
   3              		.fpu softvfp
   4              		.eabi_attribute 20, 1
   5              		.eabi_attribute 21, 1
   6              		.eabi_attribute 23, 3
   7              		.eabi_attribute 24, 1
   8              		.eabi_attribute 25, 1
   9              		.eabi_attribute 26, 1
  10              		.eabi_attribute 30, 6
  11              		.eabi_attribute 34, 1
  12              		.eabi_attribute 18, 4
  13              		.thumb
  14              		.file	"stm32f10x_dbgmcu.c"
  15              		.text
  16              	.Ltext0:
  17              		.cfi_sections	.debug_frame
  18              		.align	2
  19              		.global	DBGMCU_GetREVID
  20              		.thumb
  21              		.thumb_func
  23              	DBGMCU_GetREVID:
  24              	.LFB29:
  25              		.file 1 "../stm32_lib/src/stm32f10x_dbgmcu.c"
   1:../stm32_lib/src/stm32f10x_dbgmcu.c **** /**
   2:../stm32_lib/src/stm32f10x_dbgmcu.c ****   ******************************************************************************
   3:../stm32_lib/src/stm32f10x_dbgmcu.c ****   * @file    stm32f10x_dbgmcu.c
   4:../stm32_lib/src/stm32f10x_dbgmcu.c ****   * @author  MCD Application Team
   5:../stm32_lib/src/stm32f10x_dbgmcu.c ****   * @version V3.3.0
   6:../stm32_lib/src/stm32f10x_dbgmcu.c ****   * @date    04/16/2010
   7:../stm32_lib/src/stm32f10x_dbgmcu.c ****   * @brief   This file provides all the DBGMCU firmware functions.
   8:../stm32_lib/src/stm32f10x_dbgmcu.c ****   ******************************************************************************
   9:../stm32_lib/src/stm32f10x_dbgmcu.c ****   * @copy
  10:../stm32_lib/src/stm32f10x_dbgmcu.c ****   *
  11:../stm32_lib/src/stm32f10x_dbgmcu.c ****   * THE PRESENT FIRMWARE WHICH IS FOR GUIDANCE ONLY AIMS AT PROVIDING CUSTOMERS
  12:../stm32_lib/src/stm32f10x_dbgmcu.c ****   * WITH CODING INFORMATION REGARDING THEIR PRODUCTS IN ORDER FOR THEM TO SAVE
  13:../stm32_lib/src/stm32f10x_dbgmcu.c ****   * TIME. AS A RESULT, STMICROELECTRONICS SHALL NOT BE HELD LIABLE FOR ANY
  14:../stm32_lib/src/stm32f10x_dbgmcu.c ****   * DIRECT, INDIRECT OR CONSEQUENTIAL DAMAGES WITH RESPECT TO ANY CLAIMS ARISING
  15:../stm32_lib/src/stm32f10x_dbgmcu.c ****   * FROM THE CONTENT OF SUCH FIRMWARE AND/OR THE USE MADE BY CUSTOMERS OF THE
  16:../stm32_lib/src/stm32f10x_dbgmcu.c ****   * CODING INFORMATION CONTAINED HEREIN IN CONNECTION WITH THEIR PRODUCTS.
  17:../stm32_lib/src/stm32f10x_dbgmcu.c ****   *
  18:../stm32_lib/src/stm32f10x_dbgmcu.c ****   * <h2><center>&copy; COPYRIGHT 2010 STMicroelectronics</center></h2>
  19:../stm32_lib/src/stm32f10x_dbgmcu.c ****   */ 
  20:../stm32_lib/src/stm32f10x_dbgmcu.c **** 
  21:../stm32_lib/src/stm32f10x_dbgmcu.c **** /* Includes ------------------------------------------------------------------*/
  22:../stm32_lib/src/stm32f10x_dbgmcu.c **** #include "stm32f10x_dbgmcu.h"
  23:../stm32_lib/src/stm32f10x_dbgmcu.c **** 
  24:../stm32_lib/src/stm32f10x_dbgmcu.c **** /** @addtogroup STM32F10x_StdPeriph_Driver
  25:../stm32_lib/src/stm32f10x_dbgmcu.c ****   * @{
  26:../stm32_lib/src/stm32f10x_dbgmcu.c ****   */
  27:../stm32_lib/src/stm32f10x_dbgmcu.c **** 
  28:../stm32_lib/src/stm32f10x_dbgmcu.c **** /** @defgroup DBGMCU 
  29:../stm32_lib/src/stm32f10x_dbgmcu.c ****   * @brief DBGMCU driver modules
  30:../stm32_lib/src/stm32f10x_dbgmcu.c ****   * @{
  31:../stm32_lib/src/stm32f10x_dbgmcu.c ****   */ 
  32:../stm32_lib/src/stm32f10x_dbgmcu.c **** 
  33:../stm32_lib/src/stm32f10x_dbgmcu.c **** /** @defgroup DBGMCU_Private_TypesDefinitions
  34:../stm32_lib/src/stm32f10x_dbgmcu.c ****   * @{
  35:../stm32_lib/src/stm32f10x_dbgmcu.c ****   */
  36:../stm32_lib/src/stm32f10x_dbgmcu.c **** 
  37:../stm32_lib/src/stm32f10x_dbgmcu.c **** /**
  38:../stm32_lib/src/stm32f10x_dbgmcu.c ****   * @}
  39:../stm32_lib/src/stm32f10x_dbgmcu.c ****   */
  40:../stm32_lib/src/stm32f10x_dbgmcu.c **** 
  41:../stm32_lib/src/stm32f10x_dbgmcu.c **** /** @defgroup DBGMCU_Private_Defines
  42:../stm32_lib/src/stm32f10x_dbgmcu.c ****   * @{
  43:../stm32_lib/src/stm32f10x_dbgmcu.c ****   */
  44:../stm32_lib/src/stm32f10x_dbgmcu.c **** 
  45:../stm32_lib/src/stm32f10x_dbgmcu.c **** #define IDCODE_DEVID_Mask    ((uint32_t)0x00000FFF)
  46:../stm32_lib/src/stm32f10x_dbgmcu.c **** /**
  47:../stm32_lib/src/stm32f10x_dbgmcu.c ****   * @}
  48:../stm32_lib/src/stm32f10x_dbgmcu.c ****   */
  49:../stm32_lib/src/stm32f10x_dbgmcu.c **** 
  50:../stm32_lib/src/stm32f10x_dbgmcu.c **** /** @defgroup DBGMCU_Private_Macros
  51:../stm32_lib/src/stm32f10x_dbgmcu.c ****   * @{
  52:../stm32_lib/src/stm32f10x_dbgmcu.c ****   */
  53:../stm32_lib/src/stm32f10x_dbgmcu.c **** 
  54:../stm32_lib/src/stm32f10x_dbgmcu.c **** /**
  55:../stm32_lib/src/stm32f10x_dbgmcu.c ****   * @}
  56:../stm32_lib/src/stm32f10x_dbgmcu.c ****   */
  57:../stm32_lib/src/stm32f10x_dbgmcu.c **** 
  58:../stm32_lib/src/stm32f10x_dbgmcu.c **** /** @defgroup DBGMCU_Private_Variables
  59:../stm32_lib/src/stm32f10x_dbgmcu.c ****   * @{
  60:../stm32_lib/src/stm32f10x_dbgmcu.c ****   */
  61:../stm32_lib/src/stm32f10x_dbgmcu.c **** 
  62:../stm32_lib/src/stm32f10x_dbgmcu.c **** /**
  63:../stm32_lib/src/stm32f10x_dbgmcu.c ****   * @}
  64:../stm32_lib/src/stm32f10x_dbgmcu.c ****   */
  65:../stm32_lib/src/stm32f10x_dbgmcu.c **** 
  66:../stm32_lib/src/stm32f10x_dbgmcu.c **** /** @defgroup DBGMCU_Private_FunctionPrototypes
  67:../stm32_lib/src/stm32f10x_dbgmcu.c ****   * @{
  68:../stm32_lib/src/stm32f10x_dbgmcu.c ****   */
  69:../stm32_lib/src/stm32f10x_dbgmcu.c **** 
  70:../stm32_lib/src/stm32f10x_dbgmcu.c **** /**
  71:../stm32_lib/src/stm32f10x_dbgmcu.c ****   * @}
  72:../stm32_lib/src/stm32f10x_dbgmcu.c ****   */
  73:../stm32_lib/src/stm32f10x_dbgmcu.c **** 
  74:../stm32_lib/src/stm32f10x_dbgmcu.c **** /** @defgroup DBGMCU_Private_Functions
  75:../stm32_lib/src/stm32f10x_dbgmcu.c ****   * @{
  76:../stm32_lib/src/stm32f10x_dbgmcu.c ****   */
  77:../stm32_lib/src/stm32f10x_dbgmcu.c **** 
  78:../stm32_lib/src/stm32f10x_dbgmcu.c **** /**
  79:../stm32_lib/src/stm32f10x_dbgmcu.c ****   * @brief  Returns the device revision identifier.
  80:../stm32_lib/src/stm32f10x_dbgmcu.c ****   * @param  None
  81:../stm32_lib/src/stm32f10x_dbgmcu.c ****   * @retval Device revision identifier
  82:../stm32_lib/src/stm32f10x_dbgmcu.c ****   */
  83:../stm32_lib/src/stm32f10x_dbgmcu.c **** uint32_t DBGMCU_GetREVID(void)
  84:../stm32_lib/src/stm32f10x_dbgmcu.c **** {
  26              		.loc 1 84 0
  27              		.cfi_startproc
  28              		@ args = 0, pretend = 0, frame = 0
  29              		@ frame_needed = 1, uses_anonymous_args = 0
  30              		@ link register save eliminated.
  31 0000 80B4     		push	{r7}
  32              	.LCFI0:
  33              		.cfi_def_cfa_offset 4
  34              		.cfi_offset 7, -4
  35 0002 00AF     		add	r7, sp, #0
  36              	.LCFI1:
  37              		.cfi_def_cfa_register 7
  85:../stm32_lib/src/stm32f10x_dbgmcu.c ****    return(DBGMCU->IDCODE >> 16);
  38              		.loc 1 85 0
  39 0004 4FF40053 		mov	r3, #8192
  40 0008 CEF20403 		movt	r3, 57348
  41 000c 1B68     		ldr	r3, [r3, #0]
  42 000e 4FEA1343 		lsr	r3, r3, #16
  86:../stm32_lib/src/stm32f10x_dbgmcu.c **** }
  43              		.loc 1 86 0
  44 0012 1846     		mov	r0, r3
  45 0014 BD46     		mov	sp, r7
  46 0016 80BC     		pop	{r7}
  47 0018 7047     		bx	lr
  48              		.cfi_endproc
  49              	.LFE29:
  51 001a 00BF     		.align	2
  52              		.global	DBGMCU_GetDEVID
  53              		.thumb
  54              		.thumb_func
  56              	DBGMCU_GetDEVID:
  57              	.LFB30:
  87:../stm32_lib/src/stm32f10x_dbgmcu.c **** 
  88:../stm32_lib/src/stm32f10x_dbgmcu.c **** /**
  89:../stm32_lib/src/stm32f10x_dbgmcu.c ****   * @brief  Returns the device identifier.
  90:../stm32_lib/src/stm32f10x_dbgmcu.c ****   * @param  None
  91:../stm32_lib/src/stm32f10x_dbgmcu.c ****   * @retval Device identifier
  92:../stm32_lib/src/stm32f10x_dbgmcu.c ****   */
  93:../stm32_lib/src/stm32f10x_dbgmcu.c **** uint32_t DBGMCU_GetDEVID(void)
  94:../stm32_lib/src/stm32f10x_dbgmcu.c **** {
  58              		.loc 1 94 0
  59              		.cfi_startproc
  60              		@ args = 0, pretend = 0, frame = 0
  61              		@ frame_needed = 1, uses_anonymous_args = 0
  62              		@ link register save eliminated.
  63 001c 80B4     		push	{r7}
  64              	.LCFI2:
  65              		.cfi_def_cfa_offset 4
  66              		.cfi_offset 7, -4
  67 001e 00AF     		add	r7, sp, #0
  68              	.LCFI3:
  69              		.cfi_def_cfa_register 7
  95:../stm32_lib/src/stm32f10x_dbgmcu.c ****    return(DBGMCU->IDCODE & IDCODE_DEVID_Mask);
  70              		.loc 1 95 0
  71 0020 4FF40053 		mov	r3, #8192
  72 0024 CEF20403 		movt	r3, 57348
  73 0028 1B68     		ldr	r3, [r3, #0]
  74 002a 4FEA0353 		lsl	r3, r3, #20
  75 002e 4FEA1353 		lsr	r3, r3, #20
  96:../stm32_lib/src/stm32f10x_dbgmcu.c **** }
  76              		.loc 1 96 0
  77 0032 1846     		mov	r0, r3
  78 0034 BD46     		mov	sp, r7
  79 0036 80BC     		pop	{r7}
  80 0038 7047     		bx	lr
  81              		.cfi_endproc
  82              	.LFE30:
  84 003a 00BF     		.align	2
  85              		.global	DBGMCU_Config
  86              		.thumb
  87              		.thumb_func
  89              	DBGMCU_Config:
  90              	.LFB31:
  97:../stm32_lib/src/stm32f10x_dbgmcu.c **** 
  98:../stm32_lib/src/stm32f10x_dbgmcu.c **** /**
  99:../stm32_lib/src/stm32f10x_dbgmcu.c ****   * @brief  Configures the specified peripheral and low power mode behavior
 100:../stm32_lib/src/stm32f10x_dbgmcu.c ****   *   when the MCU under Debug mode.
 101:../stm32_lib/src/stm32f10x_dbgmcu.c ****   * @param  DBGMCU_Periph: specifies the peripheral and low power mode.
 102:../stm32_lib/src/stm32f10x_dbgmcu.c ****   *   This parameter can be any combination of the following values:
 103:../stm32_lib/src/stm32f10x_dbgmcu.c ****   *     @arg DBGMCU_SLEEP: Keep debugger connection during SLEEP mode              
 104:../stm32_lib/src/stm32f10x_dbgmcu.c ****   *     @arg DBGMCU_STOP: Keep debugger connection during STOP mode               
 105:../stm32_lib/src/stm32f10x_dbgmcu.c ****   *     @arg DBGMCU_STANDBY: Keep debugger connection during STANDBY mode            
 106:../stm32_lib/src/stm32f10x_dbgmcu.c ****   *     @arg DBGMCU_IWDG_STOP: Debug IWDG stopped when Core is halted          
 107:../stm32_lib/src/stm32f10x_dbgmcu.c ****   *     @arg DBGMCU_WWDG_STOP: Debug WWDG stopped when Core is halted          
 108:../stm32_lib/src/stm32f10x_dbgmcu.c ****   *     @arg DBGMCU_TIM1_STOP: TIM1 counter stopped when Core is halted          
 109:../stm32_lib/src/stm32f10x_dbgmcu.c ****   *     @arg DBGMCU_TIM2_STOP: TIM2 counter stopped when Core is halted          
 110:../stm32_lib/src/stm32f10x_dbgmcu.c ****   *     @arg DBGMCU_TIM3_STOP: TIM3 counter stopped when Core is halted          
 111:../stm32_lib/src/stm32f10x_dbgmcu.c ****   *     @arg DBGMCU_TIM4_STOP: TIM4 counter stopped when Core is halted          
 112:../stm32_lib/src/stm32f10x_dbgmcu.c ****   *     @arg DBGMCU_CAN1_STOP: Debug CAN2 stopped when Core is halted           
 113:../stm32_lib/src/stm32f10x_dbgmcu.c ****   *     @arg DBGMCU_I2C1_SMBUS_TIMEOUT: I2C1 SMBUS timeout mode stopped when Core is halted
 114:../stm32_lib/src/stm32f10x_dbgmcu.c ****   *     @arg DBGMCU_I2C2_SMBUS_TIMEOUT: I2C2 SMBUS timeout mode stopped when Core is halted
 115:../stm32_lib/src/stm32f10x_dbgmcu.c ****   *     @arg DBGMCU_TIM5_STOP: TIM5 counter stopped when Core is halted          
 116:../stm32_lib/src/stm32f10x_dbgmcu.c ****   *     @arg DBGMCU_TIM6_STOP: TIM6 counter stopped when Core is halted          
 117:../stm32_lib/src/stm32f10x_dbgmcu.c ****   *     @arg DBGMCU_TIM7_STOP: TIM7 counter stopped when Core is halted          
 118:../stm32_lib/src/stm32f10x_dbgmcu.c ****   *     @arg DBGMCU_TIM8_STOP: TIM8 counter stopped when Core is halted
 119:../stm32_lib/src/stm32f10x_dbgmcu.c ****   *     @arg DBGMCU_CAN2_STOP: Debug CAN2 stopped when Core is halted 
 120:../stm32_lib/src/stm32f10x_dbgmcu.c ****   *     @arg DBGMCU_TIM15_STOP: TIM15 counter stopped when Core is halted
 121:../stm32_lib/src/stm32f10x_dbgmcu.c ****   *     @arg DBGMCU_TIM16_STOP: TIM16 counter stopped when Core is halted
 122:../stm32_lib/src/stm32f10x_dbgmcu.c ****   *     @arg DBGMCU_TIM17_STOP: TIM17 counter stopped when Core is halted                
 123:../stm32_lib/src/stm32f10x_dbgmcu.c ****   *     @arg DBGMCU_TIM9_STOP: TIM9 counter stopped when Core is halted
 124:../stm32_lib/src/stm32f10x_dbgmcu.c ****   *     @arg DBGMCU_TIM10_STOP: TIM10 counter stopped when Core is halted
 125:../stm32_lib/src/stm32f10x_dbgmcu.c ****   *     @arg DBGMCU_TIM11_STOP: TIM11 counter stopped when Core is halted
 126:../stm32_lib/src/stm32f10x_dbgmcu.c ****   *     @arg DBGMCU_TIM12_STOP: TIM12 counter stopped when Core is halted
 127:../stm32_lib/src/stm32f10x_dbgmcu.c ****   *     @arg DBGMCU_TIM13_STOP: TIM13 counter stopped when Core is halted
 128:../stm32_lib/src/stm32f10x_dbgmcu.c ****   *     @arg DBGMCU_TIM14_STOP: TIM14 counter stopped when Core is halted
 129:../stm32_lib/src/stm32f10x_dbgmcu.c ****   * @param  NewState: new state of the specified peripheral in Debug mode.
 130:../stm32_lib/src/stm32f10x_dbgmcu.c ****   *   This parameter can be: ENABLE or DISABLE.
 131:../stm32_lib/src/stm32f10x_dbgmcu.c ****   * @retval None
 132:../stm32_lib/src/stm32f10x_dbgmcu.c ****   */
 133:../stm32_lib/src/stm32f10x_dbgmcu.c **** void DBGMCU_Config(uint32_t DBGMCU_Periph, FunctionalState NewState)
 134:../stm32_lib/src/stm32f10x_dbgmcu.c **** {
  91              		.loc 1 134 0
  92              		.cfi_startproc
  93              		@ args = 0, pretend = 0, frame = 8
  94              		@ frame_needed = 1, uses_anonymous_args = 0
  95              		@ link register save eliminated.
  96 003c 80B4     		push	{r7}
  97              	.LCFI4:
  98              		.cfi_def_cfa_offset 4
  99              		.cfi_offset 7, -4
 100 003e 83B0     		sub	sp, sp, #12
 101              	.LCFI5:
 102              		.cfi_def_cfa_offset 16
 103 0040 00AF     		add	r7, sp, #0
 104              	.LCFI6:
 105              		.cfi_def_cfa_register 7
 106 0042 7860     		str	r0, [r7, #4]
 107 0044 0B46     		mov	r3, r1
 108 0046 FB70     		strb	r3, [r7, #3]
 135:../stm32_lib/src/stm32f10x_dbgmcu.c ****   /* Check the parameters */
 136:../stm32_lib/src/stm32f10x_dbgmcu.c ****   assert_param(IS_DBGMCU_PERIPH(DBGMCU_Periph));
 137:../stm32_lib/src/stm32f10x_dbgmcu.c ****   assert_param(IS_FUNCTIONAL_STATE(NewState));
 138:../stm32_lib/src/stm32f10x_dbgmcu.c **** 
 139:../stm32_lib/src/stm32f10x_dbgmcu.c ****   if (NewState != DISABLE)
 109              		.loc 1 139 0
 110 0048 FB78     		ldrb	r3, [r7, #3]	@ zero_extendqisi2
 111 004a 002B     		cmp	r3, #0
 112 004c 0CD0     		beq	.L4
 140:../stm32_lib/src/stm32f10x_dbgmcu.c ****   {
 141:../stm32_lib/src/stm32f10x_dbgmcu.c ****     DBGMCU->CR |= DBGMCU_Periph;
 113              		.loc 1 141 0
 114 004e 4FF40053 		mov	r3, #8192
 115 0052 CEF20403 		movt	r3, 57348
 116 0056 4FF40052 		mov	r2, #8192
 117 005a CEF20402 		movt	r2, 57348
 118 005e 5168     		ldr	r1, [r2, #4]
 119 0060 7A68     		ldr	r2, [r7, #4]
 120 0062 0A43     		orrs	r2, r2, r1
 121 0064 5A60     		str	r2, [r3, #4]
 122 0066 0DE0     		b	.L3
 123              	.L4:
 142:../stm32_lib/src/stm32f10x_dbgmcu.c ****   }
 143:../stm32_lib/src/stm32f10x_dbgmcu.c ****   else
 144:../stm32_lib/src/stm32f10x_dbgmcu.c ****   {
 145:../stm32_lib/src/stm32f10x_dbgmcu.c ****     DBGMCU->CR &= ~DBGMCU_Periph;
 124              		.loc 1 145 0
 125 0068 4FF40053 		mov	r3, #8192
 126 006c CEF20403 		movt	r3, 57348
 127 0070 4FF40052 		mov	r2, #8192
 128 0074 CEF20402 		movt	r2, 57348
 129 0078 5168     		ldr	r1, [r2, #4]
 130 007a 7A68     		ldr	r2, [r7, #4]
 131 007c 6FEA0202 		mvn	r2, r2
 132 0080 0A40     		ands	r2, r2, r1
 133 0082 5A60     		str	r2, [r3, #4]
 134              	.L3:
 146:../stm32_lib/src/stm32f10x_dbgmcu.c ****   }
 147:../stm32_lib/src/stm32f10x_dbgmcu.c **** }
 135              		.loc 1 147 0
 136 0084 07F10C07 		add	r7, r7, #12
 137 0088 BD46     		mov	sp, r7
 138 008a 80BC     		pop	{r7}
 139 008c 7047     		bx	lr
 140              		.cfi_endproc
 141              	.LFE31:
 143              	.Letext0:
 144              		.file 2 "/opt/CodeSourcery/arm-2011.09/bin/../lib/gcc/arm-none-eabi/4.6.1/../../../../arm-none-eab
 145              		.file 3 "/home/simon/Workspace/stm32vl/stm32_lib/inc/stm32f10x.h"
 146              		.file 4 "/home/simon/Workspace/stm32vl/stm32_lib/inc/core_cm3.h"